
Motor.elf:     file format elf32-littlearm

Sections:
Idx Name          Size      VMA       LMA       File off  Algn
  0 .isr_vector   0000010c  08000000  08000000  00010000  2**0
                  CONTENTS, ALLOC, LOAD, READONLY, DATA
  1 .text         00003d20  0800010c  0800010c  0001010c  2**2
                  CONTENTS, ALLOC, LOAD, READONLY, CODE
  2 .rodata       000000e0  08003e2c  08003e2c  00013e2c  2**2
                  CONTENTS, ALLOC, LOAD, READONLY, DATA
  3 .ARM.extab    00000000  08003f0c  08003f0c  00020070  2**0
                  CONTENTS
  4 .ARM          00000000  08003f0c  08003f0c  00020070  2**0
                  CONTENTS
  5 .preinit_array 00000000  08003f0c  08003f0c  00020070  2**0
                  CONTENTS, ALLOC, LOAD, DATA
  6 .init_array   00000004  08003f0c  08003f0c  00013f0c  2**2
                  CONTENTS, ALLOC, LOAD, DATA
  7 .fini_array   00000004  08003f10  08003f10  00013f10  2**2
                  CONTENTS, ALLOC, LOAD, DATA
  8 .data         00000070  20000000  08003f14  00020000  2**2
                  CONTENTS, ALLOC, LOAD, DATA
  9 .bss          000000cc  20000070  08003f84  00020070  2**2
                  ALLOC
 10 ._user_heap_stack 00000604  2000013c  08003f84  0002013c  2**0
                  ALLOC
 11 .ARM.attributes 00000029  00000000  00000000  00020070  2**0
                  CONTENTS, READONLY
 12 .debug_info   0000cd7e  00000000  00000000  00020099  2**0
                  CONTENTS, READONLY, DEBUGGING
 13 .debug_abbrev 000021f1  00000000  00000000  0002ce17  2**0
                  CONTENTS, READONLY, DEBUGGING
 14 .debug_aranges 00000de8  00000000  00000000  0002f008  2**3
                  CONTENTS, READONLY, DEBUGGING
 15 .debug_ranges 00000cc0  00000000  00000000  0002fdf0  2**3
                  CONTENTS, READONLY, DEBUGGING
 16 .debug_macro  00015dfd  00000000  00000000  00030ab0  2**0
                  CONTENTS, READONLY, DEBUGGING
 17 .debug_line   0000a72a  00000000  00000000  000468ad  2**0
                  CONTENTS, READONLY, DEBUGGING
 18 .debug_str    00074f52  00000000  00000000  00050fd7  2**0
                  CONTENTS, READONLY, DEBUGGING
 19 .comment      0000007b  00000000  00000000  000c5f29  2**0
                  CONTENTS, READONLY
 20 .debug_frame  00003fa8  00000000  00000000  000c5fa4  2**2
                  CONTENTS, READONLY, DEBUGGING

Disassembly of section .text:

0800010c <__do_global_dtors_aux>:
 800010c:	b510      	push	{r4, lr}
 800010e:	4c05      	ldr	r4, [pc, #20]	; (8000124 <__do_global_dtors_aux+0x18>)
 8000110:	7823      	ldrb	r3, [r4, #0]
 8000112:	b933      	cbnz	r3, 8000122 <__do_global_dtors_aux+0x16>
 8000114:	4b04      	ldr	r3, [pc, #16]	; (8000128 <__do_global_dtors_aux+0x1c>)
 8000116:	b113      	cbz	r3, 800011e <__do_global_dtors_aux+0x12>
 8000118:	4804      	ldr	r0, [pc, #16]	; (800012c <__do_global_dtors_aux+0x20>)
 800011a:	f3af 8000 	nop.w
 800011e:	2301      	movs	r3, #1
 8000120:	7023      	strb	r3, [r4, #0]
 8000122:	bd10      	pop	{r4, pc}
 8000124:	20000070 	.word	0x20000070
 8000128:	00000000 	.word	0x00000000
 800012c:	08003e14 	.word	0x08003e14

08000130 <frame_dummy>:
 8000130:	b508      	push	{r3, lr}
 8000132:	4b03      	ldr	r3, [pc, #12]	; (8000140 <frame_dummy+0x10>)
 8000134:	b11b      	cbz	r3, 800013e <frame_dummy+0xe>
 8000136:	4903      	ldr	r1, [pc, #12]	; (8000144 <frame_dummy+0x14>)
 8000138:	4803      	ldr	r0, [pc, #12]	; (8000148 <frame_dummy+0x18>)
 800013a:	f3af 8000 	nop.w
 800013e:	bd08      	pop	{r3, pc}
 8000140:	00000000 	.word	0x00000000
 8000144:	20000074 	.word	0x20000074
 8000148:	08003e14 	.word	0x08003e14

0800014c <encoder_update_count>:

volatile int32_t count;
volatile float angle;


void encoder_update_count(){
 800014c:	b480      	push	{r7}
 800014e:	af00      	add	r7, sp, #0
	count = TIM4->CNT;
 8000150:	4b04      	ldr	r3, [pc, #16]	; (8000164 <encoder_update_count+0x18>)
 8000152:	6a5b      	ldr	r3, [r3, #36]	; 0x24
 8000154:	461a      	mov	r2, r3
 8000156:	4b04      	ldr	r3, [pc, #16]	; (8000168 <encoder_update_count+0x1c>)
 8000158:	601a      	str	r2, [r3, #0]
}
 800015a:	bf00      	nop
 800015c:	46bd      	mov	sp, r7
 800015e:	bc80      	pop	{r7}
 8000160:	4770      	bx	lr
 8000162:	bf00      	nop
 8000164:	40000800 	.word	0x40000800
 8000168:	2000009c 	.word	0x2000009c

0800016c <encoder_init>:

void encoder_init(){
 800016c:	b480      	push	{r7}
 800016e:	af00      	add	r7, sp, #0
	RCC->APB2ENR |= RCC_APB2ENR_AFIOEN | RCC_APB2ENR_IOPBEN;
 8000170:	4b16      	ldr	r3, [pc, #88]	; (80001cc <encoder_init+0x60>)
 8000172:	699b      	ldr	r3, [r3, #24]
 8000174:	4a15      	ldr	r2, [pc, #84]	; (80001cc <encoder_init+0x60>)
 8000176:	f043 0309 	orr.w	r3, r3, #9
 800017a:	6193      	str	r3, [r2, #24]
	RCC->APB1ENR |= RCC_APB1ENR_TIM4EN; //AFIO might not even be needed?
 800017c:	4b13      	ldr	r3, [pc, #76]	; (80001cc <encoder_init+0x60>)
 800017e:	69db      	ldr	r3, [r3, #28]
 8000180:	4a12      	ldr	r2, [pc, #72]	; (80001cc <encoder_init+0x60>)
 8000182:	f043 0304 	orr.w	r3, r3, #4
 8000186:	61d3      	str	r3, [r2, #28]

	TIM4->ARR = 0xFFFF;
 8000188:	4b11      	ldr	r3, [pc, #68]	; (80001d0 <encoder_init+0x64>)
 800018a:	f64f 72ff 	movw	r2, #65535	; 0xffff
 800018e:	62da      	str	r2, [r3, #44]	; 0x2c

	//per datasheet instructions
	TIM4->CCMR1 |= (TIM_CCMR1_CC1S_0 | TIM_CCMR1_CC2S_0 );  //step 1 and 2
 8000190:	4b0f      	ldr	r3, [pc, #60]	; (80001d0 <encoder_init+0x64>)
 8000192:	699b      	ldr	r3, [r3, #24]
 8000194:	4a0e      	ldr	r2, [pc, #56]	; (80001d0 <encoder_init+0x64>)
 8000196:	f443 7380 	orr.w	r3, r3, #256	; 0x100
 800019a:	f043 0301 	orr.w	r3, r3, #1
 800019e:	6193      	str	r3, [r2, #24]
	TIM4->CCER &= ~(TIM_CCER_CC1P | TIM_CCER_CC2P);  // step 3 and 4
 80001a0:	4b0b      	ldr	r3, [pc, #44]	; (80001d0 <encoder_init+0x64>)
 80001a2:	6a1b      	ldr	r3, [r3, #32]
 80001a4:	4a0a      	ldr	r2, [pc, #40]	; (80001d0 <encoder_init+0x64>)
 80001a6:	f023 0322 	bic.w	r3, r3, #34	; 0x22
 80001aa:	6213      	str	r3, [r2, #32]
	TIM4->SMCR |= TIM_SMCR_SMS_0 | TIM_SMCR_SMS_1;   //step 5
 80001ac:	4b08      	ldr	r3, [pc, #32]	; (80001d0 <encoder_init+0x64>)
 80001ae:	689b      	ldr	r3, [r3, #8]
 80001b0:	4a07      	ldr	r2, [pc, #28]	; (80001d0 <encoder_init+0x64>)
 80001b2:	f043 0303 	orr.w	r3, r3, #3
 80001b6:	6093      	str	r3, [r2, #8]
	TIM4->CR1 |= TIM_CR1_CEN ;     //step 6
 80001b8:	4b05      	ldr	r3, [pc, #20]	; (80001d0 <encoder_init+0x64>)
 80001ba:	681b      	ldr	r3, [r3, #0]
 80001bc:	4a04      	ldr	r2, [pc, #16]	; (80001d0 <encoder_init+0x64>)
 80001be:	f043 0301 	orr.w	r3, r3, #1
 80001c2:	6013      	str	r3, [r2, #0]
}
 80001c4:	bf00      	nop
 80001c6:	46bd      	mov	sp, r7
 80001c8:	bc80      	pop	{r7}
 80001ca:	4770      	bx	lr
 80001cc:	40021000 	.word	0x40021000
 80001d0:	40000800 	.word	0x40000800

080001d4 <enocder_get_count>:

int32_t enocder_get_count(){
 80001d4:	b480      	push	{r7}
 80001d6:	af00      	add	r7, sp, #0
	return count;
 80001d8:	4b02      	ldr	r3, [pc, #8]	; (80001e4 <enocder_get_count+0x10>)
 80001da:	681b      	ldr	r3, [r3, #0]
}
 80001dc:	4618      	mov	r0, r3
 80001de:	46bd      	mov	sp, r7
 80001e0:	bc80      	pop	{r7}
 80001e2:	4770      	bx	lr
 80001e4:	2000009c 	.word	0x2000009c

080001e8 <main>:
/**
  * @brief  The application entry point.
  * @retval int
  */
int main(void)
{
 80001e8:	b580      	push	{r7, lr}
 80001ea:	af00      	add	r7, sp, #0
  

  /* MCU Configuration--------------------------------------------------------*/

  /* Reset of all peripherals, Initializes the Flash interface and the Systick. */
  HAL_Init();
 80001ec:	f000 fbd6 	bl	800099c <HAL_Init>
  /* USER CODE BEGIN Init */

  /* USER CODE END Init */

  /* Configure the system clock */
  SystemClock_Config();
 80001f0:	f000 f822 	bl	8000238 <SystemClock_Config>
  /* USER CODE BEGIN SysInit */

  /* USER CODE END SysInit */

  /* Initialize all configured peripherals */
  MX_GPIO_Init();
 80001f4:	f000 f966 	bl	80004c4 <MX_GPIO_Init>
  MX_RTC_Init();
 80001f8:	f000 f872 	bl	80002e0 <MX_RTC_Init>
  MX_TIM2_Init();
 80001fc:	f000 f8ba 	bl	8000374 <MX_TIM2_Init>
  MX_USART2_UART_Init();
 8000200:	f000 f936 	bl	8000470 <MX_USART2_UART_Init>
  /* USER CODE BEGIN 2 */
  HAL_TIM_PWM_Start(&htim2,TIM_CHANNEL_1);
 8000204:	2100      	movs	r1, #0
 8000206:	480a      	ldr	r0, [pc, #40]	; (8000230 <main+0x48>)
 8000208:	f002 f842 	bl	8002290 <HAL_TIM_PWM_Start>
  encoder_init();
 800020c:	f7ff ffae 	bl	800016c <encoder_init>

  /* Infinite loop */
  /* USER CODE BEGIN WHILE */
  while (1)
  {
	  encoder_update_count();
 8000210:	f7ff ff9c 	bl	800014c <encoder_update_count>
	  test_blink();
 8000214:	f000 f9ae 	bl	8000574 <test_blink>
	  printf("%d \n\r",enocder_get_count());
 8000218:	f7ff ffdc 	bl	80001d4 <enocder_get_count>
 800021c:	4603      	mov	r3, r0
 800021e:	4619      	mov	r1, r3
 8000220:	4804      	ldr	r0, [pc, #16]	; (8000234 <main+0x4c>)
 8000222:	f002 ff09 	bl	8003038 <iprintf>
	  HAL_Delay(100);
 8000226:	2064      	movs	r0, #100	; 0x64
 8000228:	f000 fc1a 	bl	8000a60 <HAL_Delay>
  {
 800022c:	e7f0      	b.n	8000210 <main+0x28>
 800022e:	bf00      	nop
 8000230:	200000b4 	.word	0x200000b4
 8000234:	08003e2c 	.word	0x08003e2c

08000238 <SystemClock_Config>:
/**
  * @brief System Clock Configuration
  * @retval None
  */
void SystemClock_Config(void)
{
 8000238:	b580      	push	{r7, lr}
 800023a:	b094      	sub	sp, #80	; 0x50
 800023c:	af00      	add	r7, sp, #0
  RCC_OscInitTypeDef RCC_OscInitStruct = {0};
 800023e:	f107 0328 	add.w	r3, r7, #40	; 0x28
 8000242:	2228      	movs	r2, #40	; 0x28
 8000244:	2100      	movs	r1, #0
 8000246:	4618      	mov	r0, r3
 8000248:	f002 feee 	bl	8003028 <memset>
  RCC_ClkInitTypeDef RCC_ClkInitStruct = {0};
 800024c:	f107 0314 	add.w	r3, r7, #20
 8000250:	2200      	movs	r2, #0
 8000252:	601a      	str	r2, [r3, #0]
 8000254:	605a      	str	r2, [r3, #4]
 8000256:	609a      	str	r2, [r3, #8]
 8000258:	60da      	str	r2, [r3, #12]
 800025a:	611a      	str	r2, [r3, #16]
  RCC_PeriphCLKInitTypeDef PeriphClkInit = {0};
 800025c:	1d3b      	adds	r3, r7, #4
 800025e:	2200      	movs	r2, #0
 8000260:	601a      	str	r2, [r3, #0]
 8000262:	605a      	str	r2, [r3, #4]
 8000264:	609a      	str	r2, [r3, #8]
 8000266:	60da      	str	r2, [r3, #12]

  /** Initializes the CPU, AHB and APB busses clocks 
  */
  RCC_OscInitStruct.OscillatorType = RCC_OSCILLATORTYPE_HSI|RCC_OSCILLATORTYPE_LSI;
 8000268:	230a      	movs	r3, #10
 800026a:	62bb      	str	r3, [r7, #40]	; 0x28
  RCC_OscInitStruct.HSIState = RCC_HSI_ON;
 800026c:	2301      	movs	r3, #1
 800026e:	63bb      	str	r3, [r7, #56]	; 0x38
  RCC_OscInitStruct.HSICalibrationValue = RCC_HSICALIBRATION_DEFAULT;
 8000270:	2310      	movs	r3, #16
 8000272:	63fb      	str	r3, [r7, #60]	; 0x3c
  RCC_OscInitStruct.LSIState = RCC_LSI_ON;
 8000274:	2301      	movs	r3, #1
 8000276:	643b      	str	r3, [r7, #64]	; 0x40
  RCC_OscInitStruct.PLL.PLLState = RCC_PLL_NONE;
 8000278:	2300      	movs	r3, #0
 800027a:	647b      	str	r3, [r7, #68]	; 0x44
  if (HAL_RCC_OscConfig(&RCC_OscInitStruct) != HAL_OK)
 800027c:	f107 0328 	add.w	r3, r7, #40	; 0x28
 8000280:	4618      	mov	r0, r3
 8000282:	f000 fe89 	bl	8000f98 <HAL_RCC_OscConfig>
 8000286:	4603      	mov	r3, r0
 8000288:	2b00      	cmp	r3, #0
 800028a:	d001      	beq.n	8000290 <SystemClock_Config+0x58>
  {
    Error_Handler();
 800028c:	f000 f96c 	bl	8000568 <Error_Handler>
  }
  /** Initializes the CPU, AHB and APB busses clocks 
  */
  RCC_ClkInitStruct.ClockType = RCC_CLOCKTYPE_HCLK|RCC_CLOCKTYPE_SYSCLK
 8000290:	230f      	movs	r3, #15
 8000292:	617b      	str	r3, [r7, #20]
                              |RCC_CLOCKTYPE_PCLK1|RCC_CLOCKTYPE_PCLK2;
  RCC_ClkInitStruct.SYSCLKSource = RCC_SYSCLKSOURCE_HSI;
 8000294:	2300      	movs	r3, #0
 8000296:	61bb      	str	r3, [r7, #24]
  RCC_ClkInitStruct.AHBCLKDivider = RCC_SYSCLK_DIV1;
 8000298:	2300      	movs	r3, #0
 800029a:	61fb      	str	r3, [r7, #28]
  RCC_ClkInitStruct.APB1CLKDivider = RCC_HCLK_DIV1;
 800029c:	2300      	movs	r3, #0
 800029e:	623b      	str	r3, [r7, #32]
  RCC_ClkInitStruct.APB2CLKDivider = RCC_HCLK_DIV1;
 80002a0:	2300      	movs	r3, #0
 80002a2:	627b      	str	r3, [r7, #36]	; 0x24

  if (HAL_RCC_ClockConfig(&RCC_ClkInitStruct, FLASH_LATENCY_0) != HAL_OK)
 80002a4:	f107 0314 	add.w	r3, r7, #20
 80002a8:	2100      	movs	r1, #0
 80002aa:	4618      	mov	r0, r3
 80002ac:	f001 f8f4 	bl	8001498 <HAL_RCC_ClockConfig>
 80002b0:	4603      	mov	r3, r0
 80002b2:	2b00      	cmp	r3, #0
 80002b4:	d001      	beq.n	80002ba <SystemClock_Config+0x82>
  {
    Error_Handler();
 80002b6:	f000 f957 	bl	8000568 <Error_Handler>
  }
  PeriphClkInit.PeriphClockSelection = RCC_PERIPHCLK_RTC;
 80002ba:	2301      	movs	r3, #1
 80002bc:	607b      	str	r3, [r7, #4]
  PeriphClkInit.RTCClockSelection = RCC_RTCCLKSOURCE_LSI;
 80002be:	f44f 7300 	mov.w	r3, #512	; 0x200
 80002c2:	60bb      	str	r3, [r7, #8]
  if (HAL_RCCEx_PeriphCLKConfig(&PeriphClkInit) != HAL_OK)
 80002c4:	1d3b      	adds	r3, r7, #4
 80002c6:	4618      	mov	r0, r3
 80002c8:	f001 fa82 	bl	80017d0 <HAL_RCCEx_PeriphCLKConfig>
 80002cc:	4603      	mov	r3, r0
 80002ce:	2b00      	cmp	r3, #0
 80002d0:	d001      	beq.n	80002d6 <SystemClock_Config+0x9e>
  {
    Error_Handler();
 80002d2:	f000 f949 	bl	8000568 <Error_Handler>
  }
}
 80002d6:	bf00      	nop
 80002d8:	3750      	adds	r7, #80	; 0x50
 80002da:	46bd      	mov	sp, r7
 80002dc:	bd80      	pop	{r7, pc}
	...

080002e0 <MX_RTC_Init>:
  * @brief RTC Initialization Function
  * @param None
  * @retval None
  */
static void MX_RTC_Init(void)
{
 80002e0:	b580      	push	{r7, lr}
 80002e2:	b082      	sub	sp, #8
 80002e4:	af00      	add	r7, sp, #0

  /* USER CODE BEGIN RTC_Init 0 */

  /* USER CODE END RTC_Init 0 */

  RTC_TimeTypeDef sTime = {0};
 80002e6:	1d3b      	adds	r3, r7, #4
 80002e8:	2100      	movs	r1, #0
 80002ea:	460a      	mov	r2, r1
 80002ec:	801a      	strh	r2, [r3, #0]
 80002ee:	460a      	mov	r2, r1
 80002f0:	709a      	strb	r2, [r3, #2]
  RTC_DateTypeDef DateToUpdate = {0};
 80002f2:	2300      	movs	r3, #0
 80002f4:	603b      	str	r3, [r7, #0]
  /* USER CODE BEGIN RTC_Init 1 */

  /* USER CODE END RTC_Init 1 */
  /** Initialize RTC Only 
  */
  hrtc.Instance = RTC;
 80002f6:	4b1d      	ldr	r3, [pc, #116]	; (800036c <MX_RTC_Init+0x8c>)
 80002f8:	4a1d      	ldr	r2, [pc, #116]	; (8000370 <MX_RTC_Init+0x90>)
 80002fa:	601a      	str	r2, [r3, #0]
  hrtc.Init.AsynchPrediv = RTC_AUTO_1_SECOND;
 80002fc:	4b1b      	ldr	r3, [pc, #108]	; (800036c <MX_RTC_Init+0x8c>)
 80002fe:	f04f 32ff 	mov.w	r2, #4294967295
 8000302:	605a      	str	r2, [r3, #4]
  hrtc.Init.OutPut = RTC_OUTPUTSOURCE_NONE;
 8000304:	4b19      	ldr	r3, [pc, #100]	; (800036c <MX_RTC_Init+0x8c>)
 8000306:	2200      	movs	r2, #0
 8000308:	609a      	str	r2, [r3, #8]
  if (HAL_RTC_Init(&hrtc) != HAL_OK)
 800030a:	4818      	ldr	r0, [pc, #96]	; (800036c <MX_RTC_Init+0x8c>)
 800030c:	f001 fbd2 	bl	8001ab4 <HAL_RTC_Init>
 8000310:	4603      	mov	r3, r0
 8000312:	2b00      	cmp	r3, #0
 8000314:	d001      	beq.n	800031a <MX_RTC_Init+0x3a>
  {
    Error_Handler();
 8000316:	f000 f927 	bl	8000568 <Error_Handler>
    
  /* USER CODE END Check_RTC_BKUP */

  /** Initialize RTC and set the Time and Date 
  */
  sTime.Hours = 0x0;
 800031a:	2300      	movs	r3, #0
 800031c:	713b      	strb	r3, [r7, #4]
  sTime.Minutes = 0x0;
 800031e:	2300      	movs	r3, #0
 8000320:	717b      	strb	r3, [r7, #5]
  sTime.Seconds = 0x0;
 8000322:	2300      	movs	r3, #0
 8000324:	71bb      	strb	r3, [r7, #6]

  if (HAL_RTC_SetTime(&hrtc, &sTime, RTC_FORMAT_BCD) != HAL_OK)
 8000326:	1d3b      	adds	r3, r7, #4
 8000328:	2201      	movs	r2, #1
 800032a:	4619      	mov	r1, r3
 800032c:	480f      	ldr	r0, [pc, #60]	; (800036c <MX_RTC_Init+0x8c>)
 800032e:	f001 fc57 	bl	8001be0 <HAL_RTC_SetTime>
 8000332:	4603      	mov	r3, r0
 8000334:	2b00      	cmp	r3, #0
 8000336:	d001      	beq.n	800033c <MX_RTC_Init+0x5c>
  {
    Error_Handler();
 8000338:	f000 f916 	bl	8000568 <Error_Handler>
  }
  DateToUpdate.WeekDay = RTC_WEEKDAY_MONDAY;
 800033c:	2301      	movs	r3, #1
 800033e:	703b      	strb	r3, [r7, #0]
  DateToUpdate.Month = RTC_MONTH_JANUARY;
 8000340:	2301      	movs	r3, #1
 8000342:	707b      	strb	r3, [r7, #1]
  DateToUpdate.Date = 0x1;
 8000344:	2301      	movs	r3, #1
 8000346:	70bb      	strb	r3, [r7, #2]
  DateToUpdate.Year = 0x0;
 8000348:	2300      	movs	r3, #0
 800034a:	70fb      	strb	r3, [r7, #3]

  if (HAL_RTC_SetDate(&hrtc, &DateToUpdate, RTC_FORMAT_BCD) != HAL_OK)
 800034c:	463b      	mov	r3, r7
 800034e:	2201      	movs	r2, #1
 8000350:	4619      	mov	r1, r3
 8000352:	4806      	ldr	r0, [pc, #24]	; (800036c <MX_RTC_Init+0x8c>)
 8000354:	f001 fcdc 	bl	8001d10 <HAL_RTC_SetDate>
 8000358:	4603      	mov	r3, r0
 800035a:	2b00      	cmp	r3, #0
 800035c:	d001      	beq.n	8000362 <MX_RTC_Init+0x82>
  {
    Error_Handler();
 800035e:	f000 f903 	bl	8000568 <Error_Handler>
  }
  /* USER CODE BEGIN RTC_Init 2 */

  /* USER CODE END RTC_Init 2 */

}
 8000362:	bf00      	nop
 8000364:	3708      	adds	r7, #8
 8000366:	46bd      	mov	sp, r7
 8000368:	bd80      	pop	{r7, pc}
 800036a:	bf00      	nop
 800036c:	200000a0 	.word	0x200000a0
 8000370:	40002800 	.word	0x40002800

08000374 <MX_TIM2_Init>:
  * @brief TIM2 Initialization Function
  * @param None
  * @retval None
  */
static void MX_TIM2_Init(void)
{
 8000374:	b580      	push	{r7, lr}
 8000376:	b08e      	sub	sp, #56	; 0x38
 8000378:	af00      	add	r7, sp, #0

  /* USER CODE BEGIN TIM2_Init 0 */

  /* USER CODE END TIM2_Init 0 */

  TIM_ClockConfigTypeDef sClockSourceConfig = {0};
 800037a:	f107 0328 	add.w	r3, r7, #40	; 0x28
 800037e:	2200      	movs	r2, #0
 8000380:	601a      	str	r2, [r3, #0]
 8000382:	605a      	str	r2, [r3, #4]
 8000384:	609a      	str	r2, [r3, #8]
 8000386:	60da      	str	r2, [r3, #12]
  TIM_MasterConfigTypeDef sMasterConfig = {0};
 8000388:	f107 0320 	add.w	r3, r7, #32
 800038c:	2200      	movs	r2, #0
 800038e:	601a      	str	r2, [r3, #0]
 8000390:	605a      	str	r2, [r3, #4]
  TIM_OC_InitTypeDef sConfigOC = {0};
 8000392:	1d3b      	adds	r3, r7, #4
 8000394:	2200      	movs	r2, #0
 8000396:	601a      	str	r2, [r3, #0]
 8000398:	605a      	str	r2, [r3, #4]
 800039a:	609a      	str	r2, [r3, #8]
 800039c:	60da      	str	r2, [r3, #12]
 800039e:	611a      	str	r2, [r3, #16]
 80003a0:	615a      	str	r2, [r3, #20]
 80003a2:	619a      	str	r2, [r3, #24]

  /* USER CODE BEGIN TIM2_Init 1 */

  /* USER CODE END TIM2_Init 1 */
  htim2.Instance = TIM2;
 80003a4:	4b31      	ldr	r3, [pc, #196]	; (800046c <MX_TIM2_Init+0xf8>)
 80003a6:	f04f 4280 	mov.w	r2, #1073741824	; 0x40000000
 80003aa:	601a      	str	r2, [r3, #0]
  htim2.Init.Prescaler = 79;
 80003ac:	4b2f      	ldr	r3, [pc, #188]	; (800046c <MX_TIM2_Init+0xf8>)
 80003ae:	224f      	movs	r2, #79	; 0x4f
 80003b0:	605a      	str	r2, [r3, #4]
  htim2.Init.CounterMode = TIM_COUNTERMODE_UP;
 80003b2:	4b2e      	ldr	r3, [pc, #184]	; (800046c <MX_TIM2_Init+0xf8>)
 80003b4:	2200      	movs	r2, #0
 80003b6:	609a      	str	r2, [r3, #8]
  htim2.Init.Period = 2019;
 80003b8:	4b2c      	ldr	r3, [pc, #176]	; (800046c <MX_TIM2_Init+0xf8>)
 80003ba:	f240 72e3 	movw	r2, #2019	; 0x7e3
 80003be:	60da      	str	r2, [r3, #12]
  htim2.Init.ClockDivision = TIM_CLOCKDIVISION_DIV1;
 80003c0:	4b2a      	ldr	r3, [pc, #168]	; (800046c <MX_TIM2_Init+0xf8>)
 80003c2:	2200      	movs	r2, #0
 80003c4:	611a      	str	r2, [r3, #16]
  htim2.Init.AutoReloadPreload = TIM_AUTORELOAD_PRELOAD_DISABLE;
 80003c6:	4b29      	ldr	r3, [pc, #164]	; (800046c <MX_TIM2_Init+0xf8>)
 80003c8:	2200      	movs	r2, #0
 80003ca:	619a      	str	r2, [r3, #24]
  if (HAL_TIM_Base_Init(&htim2) != HAL_OK)
 80003cc:	4827      	ldr	r0, [pc, #156]	; (800046c <MX_TIM2_Init+0xf8>)
 80003ce:	f001 feff 	bl	80021d0 <HAL_TIM_Base_Init>
 80003d2:	4603      	mov	r3, r0
 80003d4:	2b00      	cmp	r3, #0
 80003d6:	d001      	beq.n	80003dc <MX_TIM2_Init+0x68>
  {
    Error_Handler();
 80003d8:	f000 f8c6 	bl	8000568 <Error_Handler>
  }
  sClockSourceConfig.ClockSource = TIM_CLOCKSOURCE_INTERNAL;
 80003dc:	f44f 5380 	mov.w	r3, #4096	; 0x1000
 80003e0:	62bb      	str	r3, [r7, #40]	; 0x28
  if (HAL_TIM_ConfigClockSource(&htim2, &sClockSourceConfig) != HAL_OK)
 80003e2:	f107 0328 	add.w	r3, r7, #40	; 0x28
 80003e6:	4619      	mov	r1, r3
 80003e8:	4820      	ldr	r0, [pc, #128]	; (800046c <MX_TIM2_Init+0xf8>)
 80003ea:	f002 f849 	bl	8002480 <HAL_TIM_ConfigClockSource>
 80003ee:	4603      	mov	r3, r0
 80003f0:	2b00      	cmp	r3, #0
 80003f2:	d001      	beq.n	80003f8 <MX_TIM2_Init+0x84>
  {
    Error_Handler();
 80003f4:	f000 f8b8 	bl	8000568 <Error_Handler>
  }
  if (HAL_TIM_PWM_Init(&htim2) != HAL_OK)
 80003f8:	481c      	ldr	r0, [pc, #112]	; (800046c <MX_TIM2_Init+0xf8>)
 80003fa:	f001 ff14 	bl	8002226 <HAL_TIM_PWM_Init>
 80003fe:	4603      	mov	r3, r0
 8000400:	2b00      	cmp	r3, #0
 8000402:	d001      	beq.n	8000408 <MX_TIM2_Init+0x94>
  {
    Error_Handler();
 8000404:	f000 f8b0 	bl	8000568 <Error_Handler>
  }
  sMasterConfig.MasterOutputTrigger = TIM_TRGO_RESET;
 8000408:	2300      	movs	r3, #0
 800040a:	623b      	str	r3, [r7, #32]
  sMasterConfig.MasterSlaveMode = TIM_MASTERSLAVEMODE_DISABLE;
 800040c:	2300      	movs	r3, #0
 800040e:	627b      	str	r3, [r7, #36]	; 0x24
  if (HAL_TIMEx_MasterConfigSynchronization(&htim2, &sMasterConfig) != HAL_OK)
 8000410:	f107 0320 	add.w	r3, r7, #32
 8000414:	4619      	mov	r1, r3
 8000416:	4815      	ldr	r0, [pc, #84]	; (800046c <MX_TIM2_Init+0xf8>)
 8000418:	f002 fb8e 	bl	8002b38 <HAL_TIMEx_MasterConfigSynchronization>
 800041c:	4603      	mov	r3, r0
 800041e:	2b00      	cmp	r3, #0
 8000420:	d001      	beq.n	8000426 <MX_TIM2_Init+0xb2>
  {
    Error_Handler();
 8000422:	f000 f8a1 	bl	8000568 <Error_Handler>
  }
  sConfigOC.OCMode = TIM_OCMODE_PWM1;
 8000426:	2360      	movs	r3, #96	; 0x60
 8000428:	607b      	str	r3, [r7, #4]
  sConfigOC.Pulse = 0;
 800042a:	2300      	movs	r3, #0
 800042c:	60bb      	str	r3, [r7, #8]
  sConfigOC.OCPolarity = TIM_OCPOLARITY_HIGH;
 800042e:	2300      	movs	r3, #0
 8000430:	60fb      	str	r3, [r7, #12]
  sConfigOC.OCFastMode = TIM_OCFAST_DISABLE;
 8000432:	2300      	movs	r3, #0
 8000434:	617b      	str	r3, [r7, #20]
  if (HAL_TIM_PWM_ConfigChannel(&htim2, &sConfigOC, TIM_CHANNEL_1) != HAL_OK)
 8000436:	1d3b      	adds	r3, r7, #4
 8000438:	2200      	movs	r2, #0
 800043a:	4619      	mov	r1, r3
 800043c:	480b      	ldr	r0, [pc, #44]	; (800046c <MX_TIM2_Init+0xf8>)
 800043e:	f001 ff59 	bl	80022f4 <HAL_TIM_PWM_ConfigChannel>
 8000442:	4603      	mov	r3, r0
 8000444:	2b00      	cmp	r3, #0
 8000446:	d001      	beq.n	800044c <MX_TIM2_Init+0xd8>
  {
    Error_Handler();
 8000448:	f000 f88e 	bl	8000568 <Error_Handler>
  }
  __HAL_TIM_DISABLE_OCxPRELOAD(&htim2, TIM_CHANNEL_1);
 800044c:	4b07      	ldr	r3, [pc, #28]	; (800046c <MX_TIM2_Init+0xf8>)
 800044e:	681b      	ldr	r3, [r3, #0]
 8000450:	699a      	ldr	r2, [r3, #24]
 8000452:	4b06      	ldr	r3, [pc, #24]	; (800046c <MX_TIM2_Init+0xf8>)
 8000454:	681b      	ldr	r3, [r3, #0]
 8000456:	f022 0208 	bic.w	r2, r2, #8
 800045a:	619a      	str	r2, [r3, #24]
  /* USER CODE BEGIN TIM2_Init 2 */

  /* USER CODE END TIM2_Init 2 */
  HAL_TIM_MspPostInit(&htim2);
 800045c:	4803      	ldr	r0, [pc, #12]	; (800046c <MX_TIM2_Init+0xf8>)
 800045e:	f000 f909 	bl	8000674 <HAL_TIM_MspPostInit>

}
 8000462:	bf00      	nop
 8000464:	3738      	adds	r7, #56	; 0x38
 8000466:	46bd      	mov	sp, r7
 8000468:	bd80      	pop	{r7, pc}
 800046a:	bf00      	nop
 800046c:	200000b4 	.word	0x200000b4

08000470 <MX_USART2_UART_Init>:
  * @brief USART2 Initialization Function
  * @param None
  * @retval None
  */
static void MX_USART2_UART_Init(void)
{
 8000470:	b580      	push	{r7, lr}
 8000472:	af00      	add	r7, sp, #0
  /* USER CODE END USART2_Init 0 */

  /* USER CODE BEGIN USART2_Init 1 */

  /* USER CODE END USART2_Init 1 */
  huart2.Instance = USART2;
 8000474:	4b11      	ldr	r3, [pc, #68]	; (80004bc <MX_USART2_UART_Init+0x4c>)
 8000476:	4a12      	ldr	r2, [pc, #72]	; (80004c0 <MX_USART2_UART_Init+0x50>)
 8000478:	601a      	str	r2, [r3, #0]
  huart2.Init.BaudRate = 9600;
 800047a:	4b10      	ldr	r3, [pc, #64]	; (80004bc <MX_USART2_UART_Init+0x4c>)
 800047c:	f44f 5216 	mov.w	r2, #9600	; 0x2580
 8000480:	605a      	str	r2, [r3, #4]
  huart2.Init.WordLength = UART_WORDLENGTH_8B;
 8000482:	4b0e      	ldr	r3, [pc, #56]	; (80004bc <MX_USART2_UART_Init+0x4c>)
 8000484:	2200      	movs	r2, #0
 8000486:	609a      	str	r2, [r3, #8]
  huart2.Init.StopBits = UART_STOPBITS_1;
 8000488:	4b0c      	ldr	r3, [pc, #48]	; (80004bc <MX_USART2_UART_Init+0x4c>)
 800048a:	2200      	movs	r2, #0
 800048c:	60da      	str	r2, [r3, #12]
  huart2.Init.Parity = UART_PARITY_NONE;
 800048e:	4b0b      	ldr	r3, [pc, #44]	; (80004bc <MX_USART2_UART_Init+0x4c>)
 8000490:	2200      	movs	r2, #0
 8000492:	611a      	str	r2, [r3, #16]
  huart2.Init.Mode = UART_MODE_TX_RX;
 8000494:	4b09      	ldr	r3, [pc, #36]	; (80004bc <MX_USART2_UART_Init+0x4c>)
 8000496:	220c      	movs	r2, #12
 8000498:	615a      	str	r2, [r3, #20]
  huart2.Init.HwFlowCtl = UART_HWCONTROL_NONE;
 800049a:	4b08      	ldr	r3, [pc, #32]	; (80004bc <MX_USART2_UART_Init+0x4c>)
 800049c:	2200      	movs	r2, #0
 800049e:	619a      	str	r2, [r3, #24]
  huart2.Init.OverSampling = UART_OVERSAMPLING_16;
 80004a0:	4b06      	ldr	r3, [pc, #24]	; (80004bc <MX_USART2_UART_Init+0x4c>)
 80004a2:	2200      	movs	r2, #0
 80004a4:	61da      	str	r2, [r3, #28]
  if (HAL_UART_Init(&huart2) != HAL_OK)
 80004a6:	4805      	ldr	r0, [pc, #20]	; (80004bc <MX_USART2_UART_Init+0x4c>)
 80004a8:	f002 fb8a 	bl	8002bc0 <HAL_UART_Init>
 80004ac:	4603      	mov	r3, r0
 80004ae:	2b00      	cmp	r3, #0
 80004b0:	d001      	beq.n	80004b6 <MX_USART2_UART_Init+0x46>
  {
    Error_Handler();
 80004b2:	f000 f859 	bl	8000568 <Error_Handler>
  }
  /* USER CODE BEGIN USART2_Init 2 */

  /* USER CODE END USART2_Init 2 */

}
 80004b6:	bf00      	nop
 80004b8:	bd80      	pop	{r7, pc}
 80004ba:	bf00      	nop
 80004bc:	200000f4 	.word	0x200000f4
 80004c0:	40004400 	.word	0x40004400

080004c4 <MX_GPIO_Init>:
  * @brief GPIO Initialization Function
  * @param None
  * @retval None
  */
static void MX_GPIO_Init(void)
{
 80004c4:	b580      	push	{r7, lr}
 80004c6:	b086      	sub	sp, #24
 80004c8:	af00      	add	r7, sp, #0
  GPIO_InitTypeDef GPIO_InitStruct = {0};
 80004ca:	f107 0308 	add.w	r3, r7, #8
 80004ce:	2200      	movs	r2, #0
 80004d0:	601a      	str	r2, [r3, #0]
 80004d2:	605a      	str	r2, [r3, #4]
 80004d4:	609a      	str	r2, [r3, #8]
 80004d6:	60da      	str	r2, [r3, #12]

  /* GPIO Ports Clock Enable */
  __HAL_RCC_GPIOC_CLK_ENABLE();
 80004d8:	4b18      	ldr	r3, [pc, #96]	; (800053c <MX_GPIO_Init+0x78>)
 80004da:	699b      	ldr	r3, [r3, #24]
 80004dc:	4a17      	ldr	r2, [pc, #92]	; (800053c <MX_GPIO_Init+0x78>)
 80004de:	f043 0310 	orr.w	r3, r3, #16
 80004e2:	6193      	str	r3, [r2, #24]
 80004e4:	4b15      	ldr	r3, [pc, #84]	; (800053c <MX_GPIO_Init+0x78>)
 80004e6:	699b      	ldr	r3, [r3, #24]
 80004e8:	f003 0310 	and.w	r3, r3, #16
 80004ec:	607b      	str	r3, [r7, #4]
 80004ee:	687b      	ldr	r3, [r7, #4]
  __HAL_RCC_GPIOA_CLK_ENABLE();
 80004f0:	4b12      	ldr	r3, [pc, #72]	; (800053c <MX_GPIO_Init+0x78>)
 80004f2:	699b      	ldr	r3, [r3, #24]
 80004f4:	4a11      	ldr	r2, [pc, #68]	; (800053c <MX_GPIO_Init+0x78>)
 80004f6:	f043 0304 	orr.w	r3, r3, #4
 80004fa:	6193      	str	r3, [r2, #24]
 80004fc:	4b0f      	ldr	r3, [pc, #60]	; (800053c <MX_GPIO_Init+0x78>)
 80004fe:	699b      	ldr	r3, [r3, #24]
 8000500:	f003 0304 	and.w	r3, r3, #4
 8000504:	603b      	str	r3, [r7, #0]
 8000506:	683b      	ldr	r3, [r7, #0]

  /*Configure GPIO pin Output Level */
  HAL_GPIO_WritePin(GPIOC, GPIO_PIN_13, GPIO_PIN_RESET);
 8000508:	2200      	movs	r2, #0
 800050a:	f44f 5100 	mov.w	r1, #8192	; 0x2000
 800050e:	480c      	ldr	r0, [pc, #48]	; (8000540 <MX_GPIO_Init+0x7c>)
 8000510:	f000 fd06 	bl	8000f20 <HAL_GPIO_WritePin>

  /*Configure GPIO pin : PC13 */
  GPIO_InitStruct.Pin = GPIO_PIN_13;
 8000514:	f44f 5300 	mov.w	r3, #8192	; 0x2000
 8000518:	60bb      	str	r3, [r7, #8]
  GPIO_InitStruct.Mode = GPIO_MODE_OUTPUT_PP;
 800051a:	2301      	movs	r3, #1
 800051c:	60fb      	str	r3, [r7, #12]
  GPIO_InitStruct.Pull = GPIO_NOPULL;
 800051e:	2300      	movs	r3, #0
 8000520:	613b      	str	r3, [r7, #16]
  GPIO_InitStruct.Speed = GPIO_SPEED_FREQ_LOW;
 8000522:	2302      	movs	r3, #2
 8000524:	617b      	str	r3, [r7, #20]
  HAL_GPIO_Init(GPIOC, &GPIO_InitStruct);
 8000526:	f107 0308 	add.w	r3, r7, #8
 800052a:	4619      	mov	r1, r3
 800052c:	4804      	ldr	r0, [pc, #16]	; (8000540 <MX_GPIO_Init+0x7c>)
 800052e:	f000 fb9d 	bl	8000c6c <HAL_GPIO_Init>

}
 8000532:	bf00      	nop
 8000534:	3718      	adds	r7, #24
 8000536:	46bd      	mov	sp, r7
 8000538:	bd80      	pop	{r7, pc}
 800053a:	bf00      	nop
 800053c:	40021000 	.word	0x40021000
 8000540:	40011000 	.word	0x40011000

08000544 <__io_putchar>:

/* USER CODE BEGIN 4 */
PUTCHAR_PROTOTYPE
{
 8000544:	b580      	push	{r7, lr}
 8000546:	b082      	sub	sp, #8
 8000548:	af00      	add	r7, sp, #0
 800054a:	6078      	str	r0, [r7, #4]
  /* Place your implementation of fputc here */
  /* e.g. write a character to the EVAL_COM1 and Loop until the end of transmission */
  HAL_UART_Transmit(&huart2, (uint8_t *)&ch, 1, 0xFFFF);
 800054c:	1d39      	adds	r1, r7, #4
 800054e:	f64f 73ff 	movw	r3, #65535	; 0xffff
 8000552:	2201      	movs	r2, #1
 8000554:	4803      	ldr	r0, [pc, #12]	; (8000564 <__io_putchar+0x20>)
 8000556:	f002 fb80 	bl	8002c5a <HAL_UART_Transmit>

  return ch;
 800055a:	687b      	ldr	r3, [r7, #4]
}
 800055c:	4618      	mov	r0, r3
 800055e:	3708      	adds	r7, #8
 8000560:	46bd      	mov	sp, r7
 8000562:	bd80      	pop	{r7, pc}
 8000564:	200000f4 	.word	0x200000f4

08000568 <Error_Handler>:
/**
  * @brief  This function is executed in case of error occurrence.
  * @retval None
  */
void Error_Handler(void)
{
 8000568:	b480      	push	{r7}
 800056a:	af00      	add	r7, sp, #0
  /* USER CODE BEGIN Error_Handler_Debug */
  /* User can add his own implementation to report the HAL error return state */

  /* USER CODE END Error_Handler_Debug */
}
 800056c:	bf00      	nop
 800056e:	46bd      	mov	sp, r7
 8000570:	bc80      	pop	{r7}
 8000572:	4770      	bx	lr

08000574 <test_blink>:


#define A 	1
#define B  	0

void test_blink(){
 8000574:	b580      	push	{r7, lr}
 8000576:	af00      	add	r7, sp, #0
	HAL_GPIO_TogglePin(GPIOC, GPIO_PIN_13);
 8000578:	f44f 5100 	mov.w	r1, #8192	; 0x2000
 800057c:	4803      	ldr	r0, [pc, #12]	; (800058c <test_blink+0x18>)
 800057e:	f000 fce7 	bl	8000f50 <HAL_GPIO_TogglePin>
	HAL_Delay(100);
 8000582:	2064      	movs	r0, #100	; 0x64
 8000584:	f000 fa6c 	bl	8000a60 <HAL_Delay>
}
 8000588:	bf00      	nop
 800058a:	bd80      	pop	{r7, pc}
 800058c:	40011000 	.word	0x40011000

08000590 <HAL_MspInit>:
void HAL_TIM_MspPostInit(TIM_HandleTypeDef *htim);
                    /**
  * Initializes the Global MSP.
  */
void HAL_MspInit(void)
{
 8000590:	b480      	push	{r7}
 8000592:	b085      	sub	sp, #20
 8000594:	af00      	add	r7, sp, #0
  /* USER CODE BEGIN MspInit 0 */

  /* USER CODE END MspInit 0 */

  __HAL_RCC_AFIO_CLK_ENABLE();
 8000596:	4b15      	ldr	r3, [pc, #84]	; (80005ec <HAL_MspInit+0x5c>)
 8000598:	699b      	ldr	r3, [r3, #24]
 800059a:	4a14      	ldr	r2, [pc, #80]	; (80005ec <HAL_MspInit+0x5c>)
 800059c:	f043 0301 	orr.w	r3, r3, #1
 80005a0:	6193      	str	r3, [r2, #24]
 80005a2:	4b12      	ldr	r3, [pc, #72]	; (80005ec <HAL_MspInit+0x5c>)
 80005a4:	699b      	ldr	r3, [r3, #24]
 80005a6:	f003 0301 	and.w	r3, r3, #1
 80005aa:	60bb      	str	r3, [r7, #8]
 80005ac:	68bb      	ldr	r3, [r7, #8]
  __HAL_RCC_PWR_CLK_ENABLE();
 80005ae:	4b0f      	ldr	r3, [pc, #60]	; (80005ec <HAL_MspInit+0x5c>)
 80005b0:	69db      	ldr	r3, [r3, #28]
 80005b2:	4a0e      	ldr	r2, [pc, #56]	; (80005ec <HAL_MspInit+0x5c>)
 80005b4:	f043 5380 	orr.w	r3, r3, #268435456	; 0x10000000
 80005b8:	61d3      	str	r3, [r2, #28]
 80005ba:	4b0c      	ldr	r3, [pc, #48]	; (80005ec <HAL_MspInit+0x5c>)
 80005bc:	69db      	ldr	r3, [r3, #28]
 80005be:	f003 5380 	and.w	r3, r3, #268435456	; 0x10000000
 80005c2:	607b      	str	r3, [r7, #4]
 80005c4:	687b      	ldr	r3, [r7, #4]

  /* System interrupt init*/

  /** NOJTAG: JTAG-DP Disabled and SW-DP Enabled 
  */
  __HAL_AFIO_REMAP_SWJ_NOJTAG();
 80005c6:	4b0a      	ldr	r3, [pc, #40]	; (80005f0 <HAL_MspInit+0x60>)
 80005c8:	685b      	ldr	r3, [r3, #4]
 80005ca:	60fb      	str	r3, [r7, #12]
 80005cc:	68fb      	ldr	r3, [r7, #12]
 80005ce:	f023 63e0 	bic.w	r3, r3, #117440512	; 0x7000000
 80005d2:	60fb      	str	r3, [r7, #12]
 80005d4:	68fb      	ldr	r3, [r7, #12]
 80005d6:	f043 7300 	orr.w	r3, r3, #33554432	; 0x2000000
 80005da:	60fb      	str	r3, [r7, #12]
 80005dc:	4a04      	ldr	r2, [pc, #16]	; (80005f0 <HAL_MspInit+0x60>)
 80005de:	68fb      	ldr	r3, [r7, #12]
 80005e0:	6053      	str	r3, [r2, #4]

  /* USER CODE BEGIN MspInit 1 */

  /* USER CODE END MspInit 1 */
}
 80005e2:	bf00      	nop
 80005e4:	3714      	adds	r7, #20
 80005e6:	46bd      	mov	sp, r7
 80005e8:	bc80      	pop	{r7}
 80005ea:	4770      	bx	lr
 80005ec:	40021000 	.word	0x40021000
 80005f0:	40010000 	.word	0x40010000

080005f4 <HAL_RTC_MspInit>:
* This function configures the hardware resources used in this example
* @param hrtc: RTC handle pointer
* @retval None
*/
void HAL_RTC_MspInit(RTC_HandleTypeDef* hrtc)
{
 80005f4:	b580      	push	{r7, lr}
 80005f6:	b084      	sub	sp, #16
 80005f8:	af00      	add	r7, sp, #0
 80005fa:	6078      	str	r0, [r7, #4]
  if(hrtc->Instance==RTC)
 80005fc:	687b      	ldr	r3, [r7, #4]
 80005fe:	681b      	ldr	r3, [r3, #0]
 8000600:	4a0b      	ldr	r2, [pc, #44]	; (8000630 <HAL_RTC_MspInit+0x3c>)
 8000602:	4293      	cmp	r3, r2
 8000604:	d110      	bne.n	8000628 <HAL_RTC_MspInit+0x34>
  {
  /* USER CODE BEGIN RTC_MspInit 0 */

  /* USER CODE END RTC_MspInit 0 */
    HAL_PWR_EnableBkUpAccess();
 8000606:	f000 fcbb 	bl	8000f80 <HAL_PWR_EnableBkUpAccess>
    /* Enable BKP CLK enable for backup registers */
    __HAL_RCC_BKP_CLK_ENABLE();
 800060a:	4b0a      	ldr	r3, [pc, #40]	; (8000634 <HAL_RTC_MspInit+0x40>)
 800060c:	69db      	ldr	r3, [r3, #28]
 800060e:	4a09      	ldr	r2, [pc, #36]	; (8000634 <HAL_RTC_MspInit+0x40>)
 8000610:	f043 6300 	orr.w	r3, r3, #134217728	; 0x8000000
 8000614:	61d3      	str	r3, [r2, #28]
 8000616:	4b07      	ldr	r3, [pc, #28]	; (8000634 <HAL_RTC_MspInit+0x40>)
 8000618:	69db      	ldr	r3, [r3, #28]
 800061a:	f003 6300 	and.w	r3, r3, #134217728	; 0x8000000
 800061e:	60fb      	str	r3, [r7, #12]
 8000620:	68fb      	ldr	r3, [r7, #12]
    /* Peripheral clock enable */
    __HAL_RCC_RTC_ENABLE();
 8000622:	4b05      	ldr	r3, [pc, #20]	; (8000638 <HAL_RTC_MspInit+0x44>)
 8000624:	2201      	movs	r2, #1
 8000626:	601a      	str	r2, [r3, #0]
  /* USER CODE BEGIN RTC_MspInit 1 */

  /* USER CODE END RTC_MspInit 1 */
  }

}
 8000628:	bf00      	nop
 800062a:	3710      	adds	r7, #16
 800062c:	46bd      	mov	sp, r7
 800062e:	bd80      	pop	{r7, pc}
 8000630:	40002800 	.word	0x40002800
 8000634:	40021000 	.word	0x40021000
 8000638:	4242043c 	.word	0x4242043c

0800063c <HAL_TIM_Base_MspInit>:
* This function configures the hardware resources used in this example
* @param htim_base: TIM_Base handle pointer
* @retval None
*/
void HAL_TIM_Base_MspInit(TIM_HandleTypeDef* htim_base)
{
 800063c:	b480      	push	{r7}
 800063e:	b085      	sub	sp, #20
 8000640:	af00      	add	r7, sp, #0
 8000642:	6078      	str	r0, [r7, #4]
  if(htim_base->Instance==TIM2)
 8000644:	687b      	ldr	r3, [r7, #4]
 8000646:	681b      	ldr	r3, [r3, #0]
 8000648:	f1b3 4f80 	cmp.w	r3, #1073741824	; 0x40000000
 800064c:	d10b      	bne.n	8000666 <HAL_TIM_Base_MspInit+0x2a>
  {
  /* USER CODE BEGIN TIM2_MspInit 0 */

  /* USER CODE END TIM2_MspInit 0 */
    /* Peripheral clock enable */
    __HAL_RCC_TIM2_CLK_ENABLE();
 800064e:	4b08      	ldr	r3, [pc, #32]	; (8000670 <HAL_TIM_Base_MspInit+0x34>)
 8000650:	69db      	ldr	r3, [r3, #28]
 8000652:	4a07      	ldr	r2, [pc, #28]	; (8000670 <HAL_TIM_Base_MspInit+0x34>)
 8000654:	f043 0301 	orr.w	r3, r3, #1
 8000658:	61d3      	str	r3, [r2, #28]
 800065a:	4b05      	ldr	r3, [pc, #20]	; (8000670 <HAL_TIM_Base_MspInit+0x34>)
 800065c:	69db      	ldr	r3, [r3, #28]
 800065e:	f003 0301 	and.w	r3, r3, #1
 8000662:	60fb      	str	r3, [r7, #12]
 8000664:	68fb      	ldr	r3, [r7, #12]
  /* USER CODE BEGIN TIM2_MspInit 1 */

  /* USER CODE END TIM2_MspInit 1 */
  }

}
 8000666:	bf00      	nop
 8000668:	3714      	adds	r7, #20
 800066a:	46bd      	mov	sp, r7
 800066c:	bc80      	pop	{r7}
 800066e:	4770      	bx	lr
 8000670:	40021000 	.word	0x40021000

08000674 <HAL_TIM_MspPostInit>:

void HAL_TIM_MspPostInit(TIM_HandleTypeDef* htim)
{
 8000674:	b580      	push	{r7, lr}
 8000676:	b088      	sub	sp, #32
 8000678:	af00      	add	r7, sp, #0
 800067a:	6078      	str	r0, [r7, #4]
  GPIO_InitTypeDef GPIO_InitStruct = {0};
 800067c:	f107 0310 	add.w	r3, r7, #16
 8000680:	2200      	movs	r2, #0
 8000682:	601a      	str	r2, [r3, #0]
 8000684:	605a      	str	r2, [r3, #4]
 8000686:	609a      	str	r2, [r3, #8]
 8000688:	60da      	str	r2, [r3, #12]
  if(htim->Instance==TIM2)
 800068a:	687b      	ldr	r3, [r7, #4]
 800068c:	681b      	ldr	r3, [r3, #0]
 800068e:	f1b3 4f80 	cmp.w	r3, #1073741824	; 0x40000000
 8000692:	d117      	bne.n	80006c4 <HAL_TIM_MspPostInit+0x50>
  {
  /* USER CODE BEGIN TIM2_MspPostInit 0 */

  /* USER CODE END TIM2_MspPostInit 0 */
  
    __HAL_RCC_GPIOA_CLK_ENABLE();
 8000694:	4b0d      	ldr	r3, [pc, #52]	; (80006cc <HAL_TIM_MspPostInit+0x58>)
 8000696:	699b      	ldr	r3, [r3, #24]
 8000698:	4a0c      	ldr	r2, [pc, #48]	; (80006cc <HAL_TIM_MspPostInit+0x58>)
 800069a:	f043 0304 	orr.w	r3, r3, #4
 800069e:	6193      	str	r3, [r2, #24]
 80006a0:	4b0a      	ldr	r3, [pc, #40]	; (80006cc <HAL_TIM_MspPostInit+0x58>)
 80006a2:	699b      	ldr	r3, [r3, #24]
 80006a4:	f003 0304 	and.w	r3, r3, #4
 80006a8:	60fb      	str	r3, [r7, #12]
 80006aa:	68fb      	ldr	r3, [r7, #12]
    /**TIM2 GPIO Configuration    
    PA0-WKUP     ------> TIM2_CH1 
    */
    GPIO_InitStruct.Pin = GPIO_PIN_0;
 80006ac:	2301      	movs	r3, #1
 80006ae:	613b      	str	r3, [r7, #16]
    GPIO_InitStruct.Mode = GPIO_MODE_AF_PP;
 80006b0:	2302      	movs	r3, #2
 80006b2:	617b      	str	r3, [r7, #20]
    GPIO_InitStruct.Speed = GPIO_SPEED_FREQ_LOW;
 80006b4:	2302      	movs	r3, #2
 80006b6:	61fb      	str	r3, [r7, #28]
    HAL_GPIO_Init(GPIOA, &GPIO_InitStruct);
 80006b8:	f107 0310 	add.w	r3, r7, #16
 80006bc:	4619      	mov	r1, r3
 80006be:	4804      	ldr	r0, [pc, #16]	; (80006d0 <HAL_TIM_MspPostInit+0x5c>)
 80006c0:	f000 fad4 	bl	8000c6c <HAL_GPIO_Init>
  /* USER CODE BEGIN TIM2_MspPostInit 1 */

  /* USER CODE END TIM2_MspPostInit 1 */
  }

}
 80006c4:	bf00      	nop
 80006c6:	3720      	adds	r7, #32
 80006c8:	46bd      	mov	sp, r7
 80006ca:	bd80      	pop	{r7, pc}
 80006cc:	40021000 	.word	0x40021000
 80006d0:	40010800 	.word	0x40010800

080006d4 <HAL_UART_MspInit>:
* This function configures the hardware resources used in this example
* @param huart: UART handle pointer
* @retval None
*/
void HAL_UART_MspInit(UART_HandleTypeDef* huart)
{
 80006d4:	b580      	push	{r7, lr}
 80006d6:	b088      	sub	sp, #32
 80006d8:	af00      	add	r7, sp, #0
 80006da:	6078      	str	r0, [r7, #4]
  GPIO_InitTypeDef GPIO_InitStruct = {0};
 80006dc:	f107 0310 	add.w	r3, r7, #16
 80006e0:	2200      	movs	r2, #0
 80006e2:	601a      	str	r2, [r3, #0]
 80006e4:	605a      	str	r2, [r3, #4]
 80006e6:	609a      	str	r2, [r3, #8]
 80006e8:	60da      	str	r2, [r3, #12]
  if(huart->Instance==USART2)
 80006ea:	687b      	ldr	r3, [r7, #4]
 80006ec:	681b      	ldr	r3, [r3, #0]
 80006ee:	4a1b      	ldr	r2, [pc, #108]	; (800075c <HAL_UART_MspInit+0x88>)
 80006f0:	4293      	cmp	r3, r2
 80006f2:	d12f      	bne.n	8000754 <HAL_UART_MspInit+0x80>
  {
  /* USER CODE BEGIN USART2_MspInit 0 */

  /* USER CODE END USART2_MspInit 0 */
    /* Peripheral clock enable */
    __HAL_RCC_USART2_CLK_ENABLE();
 80006f4:	4b1a      	ldr	r3, [pc, #104]	; (8000760 <HAL_UART_MspInit+0x8c>)
 80006f6:	69db      	ldr	r3, [r3, #28]
 80006f8:	4a19      	ldr	r2, [pc, #100]	; (8000760 <HAL_UART_MspInit+0x8c>)
 80006fa:	f443 3300 	orr.w	r3, r3, #131072	; 0x20000
 80006fe:	61d3      	str	r3, [r2, #28]
 8000700:	4b17      	ldr	r3, [pc, #92]	; (8000760 <HAL_UART_MspInit+0x8c>)
 8000702:	69db      	ldr	r3, [r3, #28]
 8000704:	f403 3300 	and.w	r3, r3, #131072	; 0x20000
 8000708:	60fb      	str	r3, [r7, #12]
 800070a:	68fb      	ldr	r3, [r7, #12]
  
    __HAL_RCC_GPIOA_CLK_ENABLE();
 800070c:	4b14      	ldr	r3, [pc, #80]	; (8000760 <HAL_UART_MspInit+0x8c>)
 800070e:	699b      	ldr	r3, [r3, #24]
 8000710:	4a13      	ldr	r2, [pc, #76]	; (8000760 <HAL_UART_MspInit+0x8c>)
 8000712:	f043 0304 	orr.w	r3, r3, #4
 8000716:	6193      	str	r3, [r2, #24]
 8000718:	4b11      	ldr	r3, [pc, #68]	; (8000760 <HAL_UART_MspInit+0x8c>)
 800071a:	699b      	ldr	r3, [r3, #24]
 800071c:	f003 0304 	and.w	r3, r3, #4
 8000720:	60bb      	str	r3, [r7, #8]
 8000722:	68bb      	ldr	r3, [r7, #8]
    /**USART2 GPIO Configuration    
    PA2     ------> USART2_TX
    PA3     ------> USART2_RX 
    */
    GPIO_InitStruct.Pin = GPIO_PIN_2;
 8000724:	2304      	movs	r3, #4
 8000726:	613b      	str	r3, [r7, #16]
    GPIO_InitStruct.Mode = GPIO_MODE_AF_PP;
 8000728:	2302      	movs	r3, #2
 800072a:	617b      	str	r3, [r7, #20]
    GPIO_InitStruct.Speed = GPIO_SPEED_FREQ_HIGH;
 800072c:	2303      	movs	r3, #3
 800072e:	61fb      	str	r3, [r7, #28]
    HAL_GPIO_Init(GPIOA, &GPIO_InitStruct);
 8000730:	f107 0310 	add.w	r3, r7, #16
 8000734:	4619      	mov	r1, r3
 8000736:	480b      	ldr	r0, [pc, #44]	; (8000764 <HAL_UART_MspInit+0x90>)
 8000738:	f000 fa98 	bl	8000c6c <HAL_GPIO_Init>

    GPIO_InitStruct.Pin = GPIO_PIN_3;
 800073c:	2308      	movs	r3, #8
 800073e:	613b      	str	r3, [r7, #16]
    GPIO_InitStruct.Mode = GPIO_MODE_INPUT;
 8000740:	2300      	movs	r3, #0
 8000742:	617b      	str	r3, [r7, #20]
    GPIO_InitStruct.Pull = GPIO_NOPULL;
 8000744:	2300      	movs	r3, #0
 8000746:	61bb      	str	r3, [r7, #24]
    HAL_GPIO_Init(GPIOA, &GPIO_InitStruct);
 8000748:	f107 0310 	add.w	r3, r7, #16
 800074c:	4619      	mov	r1, r3
 800074e:	4805      	ldr	r0, [pc, #20]	; (8000764 <HAL_UART_MspInit+0x90>)
 8000750:	f000 fa8c 	bl	8000c6c <HAL_GPIO_Init>
  /* USER CODE BEGIN USART2_MspInit 1 */

  /* USER CODE END USART2_MspInit 1 */
  }

}
 8000754:	bf00      	nop
 8000756:	3720      	adds	r7, #32
 8000758:	46bd      	mov	sp, r7
 800075a:	bd80      	pop	{r7, pc}
 800075c:	40004400 	.word	0x40004400
 8000760:	40021000 	.word	0x40021000
 8000764:	40010800 	.word	0x40010800

08000768 <NMI_Handler>:
/******************************************************************************/
/**
  * @brief This function handles Non maskable interrupt.
  */
void NMI_Handler(void)
{
 8000768:	b480      	push	{r7}
 800076a:	af00      	add	r7, sp, #0

  /* USER CODE END NonMaskableInt_IRQn 0 */
  /* USER CODE BEGIN NonMaskableInt_IRQn 1 */

  /* USER CODE END NonMaskableInt_IRQn 1 */
}
 800076c:	bf00      	nop
 800076e:	46bd      	mov	sp, r7
 8000770:	bc80      	pop	{r7}
 8000772:	4770      	bx	lr

08000774 <HardFault_Handler>:

/**
  * @brief This function handles Hard fault interrupt.
  */
void HardFault_Handler(void)
{
 8000774:	b480      	push	{r7}
 8000776:	af00      	add	r7, sp, #0
  /* USER CODE BEGIN HardFault_IRQn 0 */

  /* USER CODE END HardFault_IRQn 0 */
  while (1)
 8000778:	e7fe      	b.n	8000778 <HardFault_Handler+0x4>

0800077a <MemManage_Handler>:

/**
  * @brief This function handles Memory management fault.
  */
void MemManage_Handler(void)
{
 800077a:	b480      	push	{r7}
 800077c:	af00      	add	r7, sp, #0
  /* USER CODE BEGIN MemoryManagement_IRQn 0 */

  /* USER CODE END MemoryManagement_IRQn 0 */
  while (1)
 800077e:	e7fe      	b.n	800077e <MemManage_Handler+0x4>

08000780 <BusFault_Handler>:

/**
  * @brief This function handles Prefetch fault, memory access fault.
  */
void BusFault_Handler(void)
{
 8000780:	b480      	push	{r7}
 8000782:	af00      	add	r7, sp, #0
  /* USER CODE BEGIN BusFault_IRQn 0 */

  /* USER CODE END BusFault_IRQn 0 */
  while (1)
 8000784:	e7fe      	b.n	8000784 <BusFault_Handler+0x4>

08000786 <UsageFault_Handler>:

/**
  * @brief This function handles Undefined instruction or illegal state.
  */
void UsageFault_Handler(void)
{
 8000786:	b480      	push	{r7}
 8000788:	af00      	add	r7, sp, #0
  /* USER CODE BEGIN UsageFault_IRQn 0 */

  /* USER CODE END UsageFault_IRQn 0 */
  while (1)
 800078a:	e7fe      	b.n	800078a <UsageFault_Handler+0x4>

0800078c <SVC_Handler>:

/**
  * @brief This function handles System service call via SWI instruction.
  */
void SVC_Handler(void)
{
 800078c:	b480      	push	{r7}
 800078e:	af00      	add	r7, sp, #0

  /* USER CODE END SVCall_IRQn 0 */
  /* USER CODE BEGIN SVCall_IRQn 1 */

  /* USER CODE END SVCall_IRQn 1 */
}
 8000790:	bf00      	nop
 8000792:	46bd      	mov	sp, r7
 8000794:	bc80      	pop	{r7}
 8000796:	4770      	bx	lr

08000798 <DebugMon_Handler>:

/**
  * @brief This function handles Debug monitor.
  */
void DebugMon_Handler(void)
{
 8000798:	b480      	push	{r7}
 800079a:	af00      	add	r7, sp, #0

  /* USER CODE END DebugMonitor_IRQn 0 */
  /* USER CODE BEGIN DebugMonitor_IRQn 1 */

  /* USER CODE END DebugMonitor_IRQn 1 */
}
 800079c:	bf00      	nop
 800079e:	46bd      	mov	sp, r7
 80007a0:	bc80      	pop	{r7}
 80007a2:	4770      	bx	lr

080007a4 <PendSV_Handler>:

/**
  * @brief This function handles Pendable request for system service.
  */
void PendSV_Handler(void)
{
 80007a4:	b480      	push	{r7}
 80007a6:	af00      	add	r7, sp, #0

  /* USER CODE END PendSV_IRQn 0 */
  /* USER CODE BEGIN PendSV_IRQn 1 */

  /* USER CODE END PendSV_IRQn 1 */
}
 80007a8:	bf00      	nop
 80007aa:	46bd      	mov	sp, r7
 80007ac:	bc80      	pop	{r7}
 80007ae:	4770      	bx	lr

080007b0 <SysTick_Handler>:

/**
  * @brief This function handles System tick timer.
  */
void SysTick_Handler(void)
{
 80007b0:	b580      	push	{r7, lr}
 80007b2:	af00      	add	r7, sp, #0
  /* USER CODE BEGIN SysTick_IRQn 0 */

  /* USER CODE END SysTick_IRQn 0 */
  HAL_IncTick();
 80007b4:	f000 f938 	bl	8000a28 <HAL_IncTick>
  /* USER CODE BEGIN SysTick_IRQn 1 */

  /* USER CODE END SysTick_IRQn 1 */
}
 80007b8:	bf00      	nop
 80007ba:	bd80      	pop	{r7, pc}

080007bc <_read>:
	_kill(status, -1);
	while (1) {}		/* Make sure we hang here */
}

__attribute__((weak)) int _read(int file, char *ptr, int len)
{
 80007bc:	b580      	push	{r7, lr}
 80007be:	b086      	sub	sp, #24
 80007c0:	af00      	add	r7, sp, #0
 80007c2:	60f8      	str	r0, [r7, #12]
 80007c4:	60b9      	str	r1, [r7, #8]
 80007c6:	607a      	str	r2, [r7, #4]
	int DataIdx;

	for (DataIdx = 0; DataIdx < len; DataIdx++)
 80007c8:	2300      	movs	r3, #0
 80007ca:	617b      	str	r3, [r7, #20]
 80007cc:	e00a      	b.n	80007e4 <_read+0x28>
	{
		*ptr++ = __io_getchar();
 80007ce:	f3af 8000 	nop.w
 80007d2:	4601      	mov	r1, r0
 80007d4:	68bb      	ldr	r3, [r7, #8]
 80007d6:	1c5a      	adds	r2, r3, #1
 80007d8:	60ba      	str	r2, [r7, #8]
 80007da:	b2ca      	uxtb	r2, r1
 80007dc:	701a      	strb	r2, [r3, #0]
	for (DataIdx = 0; DataIdx < len; DataIdx++)
 80007de:	697b      	ldr	r3, [r7, #20]
 80007e0:	3301      	adds	r3, #1
 80007e2:	617b      	str	r3, [r7, #20]
 80007e4:	697a      	ldr	r2, [r7, #20]
 80007e6:	687b      	ldr	r3, [r7, #4]
 80007e8:	429a      	cmp	r2, r3
 80007ea:	dbf0      	blt.n	80007ce <_read+0x12>
	}

return len;
 80007ec:	687b      	ldr	r3, [r7, #4]
}
 80007ee:	4618      	mov	r0, r3
 80007f0:	3718      	adds	r7, #24
 80007f2:	46bd      	mov	sp, r7
 80007f4:	bd80      	pop	{r7, pc}

080007f6 <_write>:

__attribute__((weak)) int _write(int file, char *ptr, int len)
{
 80007f6:	b580      	push	{r7, lr}
 80007f8:	b086      	sub	sp, #24
 80007fa:	af00      	add	r7, sp, #0
 80007fc:	60f8      	str	r0, [r7, #12]
 80007fe:	60b9      	str	r1, [r7, #8]
 8000800:	607a      	str	r2, [r7, #4]
	int DataIdx;

	for (DataIdx = 0; DataIdx < len; DataIdx++)
 8000802:	2300      	movs	r3, #0
 8000804:	617b      	str	r3, [r7, #20]
 8000806:	e009      	b.n	800081c <_write+0x26>
	{
		__io_putchar(*ptr++);
 8000808:	68bb      	ldr	r3, [r7, #8]
 800080a:	1c5a      	adds	r2, r3, #1
 800080c:	60ba      	str	r2, [r7, #8]
 800080e:	781b      	ldrb	r3, [r3, #0]
 8000810:	4618      	mov	r0, r3
 8000812:	f7ff fe97 	bl	8000544 <__io_putchar>
	for (DataIdx = 0; DataIdx < len; DataIdx++)
 8000816:	697b      	ldr	r3, [r7, #20]
 8000818:	3301      	adds	r3, #1
 800081a:	617b      	str	r3, [r7, #20]
 800081c:	697a      	ldr	r2, [r7, #20]
 800081e:	687b      	ldr	r3, [r7, #4]
 8000820:	429a      	cmp	r2, r3
 8000822:	dbf1      	blt.n	8000808 <_write+0x12>
	}
	return len;
 8000824:	687b      	ldr	r3, [r7, #4]
}
 8000826:	4618      	mov	r0, r3
 8000828:	3718      	adds	r7, #24
 800082a:	46bd      	mov	sp, r7
 800082c:	bd80      	pop	{r7, pc}

0800082e <_close>:

int _close(int file)
{
 800082e:	b480      	push	{r7}
 8000830:	b083      	sub	sp, #12
 8000832:	af00      	add	r7, sp, #0
 8000834:	6078      	str	r0, [r7, #4]
	return -1;
 8000836:	f04f 33ff 	mov.w	r3, #4294967295
}
 800083a:	4618      	mov	r0, r3
 800083c:	370c      	adds	r7, #12
 800083e:	46bd      	mov	sp, r7
 8000840:	bc80      	pop	{r7}
 8000842:	4770      	bx	lr

08000844 <_fstat>:


int _fstat(int file, struct stat *st)
{
 8000844:	b480      	push	{r7}
 8000846:	b083      	sub	sp, #12
 8000848:	af00      	add	r7, sp, #0
 800084a:	6078      	str	r0, [r7, #4]
 800084c:	6039      	str	r1, [r7, #0]
	st->st_mode = S_IFCHR;
 800084e:	683b      	ldr	r3, [r7, #0]
 8000850:	f44f 5200 	mov.w	r2, #8192	; 0x2000
 8000854:	605a      	str	r2, [r3, #4]
	return 0;
 8000856:	2300      	movs	r3, #0
}
 8000858:	4618      	mov	r0, r3
 800085a:	370c      	adds	r7, #12
 800085c:	46bd      	mov	sp, r7
 800085e:	bc80      	pop	{r7}
 8000860:	4770      	bx	lr

08000862 <_isatty>:

int _isatty(int file)
{
 8000862:	b480      	push	{r7}
 8000864:	b083      	sub	sp, #12
 8000866:	af00      	add	r7, sp, #0
 8000868:	6078      	str	r0, [r7, #4]
	return 1;
 800086a:	2301      	movs	r3, #1
}
 800086c:	4618      	mov	r0, r3
 800086e:	370c      	adds	r7, #12
 8000870:	46bd      	mov	sp, r7
 8000872:	bc80      	pop	{r7}
 8000874:	4770      	bx	lr

08000876 <_lseek>:

int _lseek(int file, int ptr, int dir)
{
 8000876:	b480      	push	{r7}
 8000878:	b085      	sub	sp, #20
 800087a:	af00      	add	r7, sp, #0
 800087c:	60f8      	str	r0, [r7, #12]
 800087e:	60b9      	str	r1, [r7, #8]
 8000880:	607a      	str	r2, [r7, #4]
	return 0;
 8000882:	2300      	movs	r3, #0
}
 8000884:	4618      	mov	r0, r3
 8000886:	3714      	adds	r7, #20
 8000888:	46bd      	mov	sp, r7
 800088a:	bc80      	pop	{r7}
 800088c:	4770      	bx	lr
	...

08000890 <_sbrk>:
/**
 _sbrk
 Increase program data space. Malloc and related functions depend on this
**/
caddr_t _sbrk(int incr)
{
 8000890:	b580      	push	{r7, lr}
 8000892:	b084      	sub	sp, #16
 8000894:	af00      	add	r7, sp, #0
 8000896:	6078      	str	r0, [r7, #4]
	extern char end asm("end");
	static char *heap_end;
	char *prev_heap_end;

	if (heap_end == 0)
 8000898:	4b11      	ldr	r3, [pc, #68]	; (80008e0 <_sbrk+0x50>)
 800089a:	681b      	ldr	r3, [r3, #0]
 800089c:	2b00      	cmp	r3, #0
 800089e:	d102      	bne.n	80008a6 <_sbrk+0x16>
		heap_end = &end;
 80008a0:	4b0f      	ldr	r3, [pc, #60]	; (80008e0 <_sbrk+0x50>)
 80008a2:	4a10      	ldr	r2, [pc, #64]	; (80008e4 <_sbrk+0x54>)
 80008a4:	601a      	str	r2, [r3, #0]

	prev_heap_end = heap_end;
 80008a6:	4b0e      	ldr	r3, [pc, #56]	; (80008e0 <_sbrk+0x50>)
 80008a8:	681b      	ldr	r3, [r3, #0]
 80008aa:	60fb      	str	r3, [r7, #12]
	if (heap_end + incr > stack_ptr)
 80008ac:	4b0c      	ldr	r3, [pc, #48]	; (80008e0 <_sbrk+0x50>)
 80008ae:	681a      	ldr	r2, [r3, #0]
 80008b0:	687b      	ldr	r3, [r7, #4]
 80008b2:	4413      	add	r3, r2
 80008b4:	466a      	mov	r2, sp
 80008b6:	4293      	cmp	r3, r2
 80008b8:	d907      	bls.n	80008ca <_sbrk+0x3a>
	{
		errno = ENOMEM;
 80008ba:	f002 fb8b 	bl	8002fd4 <__errno>
 80008be:	4602      	mov	r2, r0
 80008c0:	230c      	movs	r3, #12
 80008c2:	6013      	str	r3, [r2, #0]
		return (caddr_t) -1;
 80008c4:	f04f 33ff 	mov.w	r3, #4294967295
 80008c8:	e006      	b.n	80008d8 <_sbrk+0x48>
	}

	heap_end += incr;
 80008ca:	4b05      	ldr	r3, [pc, #20]	; (80008e0 <_sbrk+0x50>)
 80008cc:	681a      	ldr	r2, [r3, #0]
 80008ce:	687b      	ldr	r3, [r7, #4]
 80008d0:	4413      	add	r3, r2
 80008d2:	4a03      	ldr	r2, [pc, #12]	; (80008e0 <_sbrk+0x50>)
 80008d4:	6013      	str	r3, [r2, #0]

	return (caddr_t) prev_heap_end;
 80008d6:	68fb      	ldr	r3, [r7, #12]
}
 80008d8:	4618      	mov	r0, r3
 80008da:	3710      	adds	r7, #16
 80008dc:	46bd      	mov	sp, r7
 80008de:	bd80      	pop	{r7, pc}
 80008e0:	2000008c 	.word	0x2000008c
 80008e4:	20000140 	.word	0x20000140

080008e8 <SystemInit>:
  * @note   This function should be used only after reset.
  * @param  None
  * @retval None
  */
void SystemInit (void)
{
 80008e8:	b480      	push	{r7}
 80008ea:	af00      	add	r7, sp, #0
  /* Reset the RCC clock configuration to the default reset state(for debug purpose) */
  /* Set HSION bit */
  RCC->CR |= 0x00000001U;
 80008ec:	4b15      	ldr	r3, [pc, #84]	; (8000944 <SystemInit+0x5c>)
 80008ee:	681b      	ldr	r3, [r3, #0]
 80008f0:	4a14      	ldr	r2, [pc, #80]	; (8000944 <SystemInit+0x5c>)
 80008f2:	f043 0301 	orr.w	r3, r3, #1
 80008f6:	6013      	str	r3, [r2, #0]

  /* Reset SW, HPRE, PPRE1, PPRE2, ADCPRE and MCO bits */
#if !defined(STM32F105xC) && !defined(STM32F107xC)
  RCC->CFGR &= 0xF8FF0000U;
 80008f8:	4b12      	ldr	r3, [pc, #72]	; (8000944 <SystemInit+0x5c>)
 80008fa:	685a      	ldr	r2, [r3, #4]
 80008fc:	4911      	ldr	r1, [pc, #68]	; (8000944 <SystemInit+0x5c>)
 80008fe:	4b12      	ldr	r3, [pc, #72]	; (8000948 <SystemInit+0x60>)
 8000900:	4013      	ands	r3, r2
 8000902:	604b      	str	r3, [r1, #4]
#else
  RCC->CFGR &= 0xF0FF0000U;
#endif /* STM32F105xC */   
  
  /* Reset HSEON, CSSON and PLLON bits */
  RCC->CR &= 0xFEF6FFFFU;
 8000904:	4b0f      	ldr	r3, [pc, #60]	; (8000944 <SystemInit+0x5c>)
 8000906:	681b      	ldr	r3, [r3, #0]
 8000908:	4a0e      	ldr	r2, [pc, #56]	; (8000944 <SystemInit+0x5c>)
 800090a:	f023 7384 	bic.w	r3, r3, #17301504	; 0x1080000
 800090e:	f423 3380 	bic.w	r3, r3, #65536	; 0x10000
 8000912:	6013      	str	r3, [r2, #0]

  /* Reset HSEBYP bit */
  RCC->CR &= 0xFFFBFFFFU;
 8000914:	4b0b      	ldr	r3, [pc, #44]	; (8000944 <SystemInit+0x5c>)
 8000916:	681b      	ldr	r3, [r3, #0]
 8000918:	4a0a      	ldr	r2, [pc, #40]	; (8000944 <SystemInit+0x5c>)
 800091a:	f423 2380 	bic.w	r3, r3, #262144	; 0x40000
 800091e:	6013      	str	r3, [r2, #0]

  /* Reset PLLSRC, PLLXTPRE, PLLMUL and USBPRE/OTGFSPRE bits */
  RCC->CFGR &= 0xFF80FFFFU;
 8000920:	4b08      	ldr	r3, [pc, #32]	; (8000944 <SystemInit+0x5c>)
 8000922:	685b      	ldr	r3, [r3, #4]
 8000924:	4a07      	ldr	r2, [pc, #28]	; (8000944 <SystemInit+0x5c>)
 8000926:	f423 03fe 	bic.w	r3, r3, #8323072	; 0x7f0000
 800092a:	6053      	str	r3, [r2, #4]

  /* Reset CFGR2 register */
  RCC->CFGR2 = 0x00000000U;      
#else
  /* Disable all interrupts and clear pending bits  */
  RCC->CIR = 0x009F0000U;
 800092c:	4b05      	ldr	r3, [pc, #20]	; (8000944 <SystemInit+0x5c>)
 800092e:	f44f 021f 	mov.w	r2, #10420224	; 0x9f0000
 8000932:	609a      	str	r2, [r3, #8]
#endif 

#ifdef VECT_TAB_SRAM
  SCB->VTOR = SRAM_BASE | VECT_TAB_OFFSET; /* Vector Table Relocation in Internal SRAM. */
#else
  SCB->VTOR = FLASH_BASE | VECT_TAB_OFFSET; /* Vector Table Relocation in Internal FLASH. */
 8000934:	4b05      	ldr	r3, [pc, #20]	; (800094c <SystemInit+0x64>)
 8000936:	f04f 6200 	mov.w	r2, #134217728	; 0x8000000
 800093a:	609a      	str	r2, [r3, #8]
#endif 
}
 800093c:	bf00      	nop
 800093e:	46bd      	mov	sp, r7
 8000940:	bc80      	pop	{r7}
 8000942:	4770      	bx	lr
 8000944:	40021000 	.word	0x40021000
 8000948:	f8ff0000 	.word	0xf8ff0000
 800094c:	e000ed00 	.word	0xe000ed00

08000950 <Reset_Handler>:
  .weak Reset_Handler
  .type Reset_Handler, %function
Reset_Handler:

/* Copy the data segment initializers from flash to SRAM */
  movs r1, #0
 8000950:	2100      	movs	r1, #0
  b LoopCopyDataInit
 8000952:	e003      	b.n	800095c <LoopCopyDataInit>

08000954 <CopyDataInit>:

CopyDataInit:
  ldr r3, =_sidata
 8000954:	4b0b      	ldr	r3, [pc, #44]	; (8000984 <LoopFillZerobss+0x14>)
  ldr r3, [r3, r1]
 8000956:	585b      	ldr	r3, [r3, r1]
  str r3, [r0, r1]
 8000958:	5043      	str	r3, [r0, r1]
  adds r1, r1, #4
 800095a:	3104      	adds	r1, #4

0800095c <LoopCopyDataInit>:

LoopCopyDataInit:
  ldr r0, =_sdata
 800095c:	480a      	ldr	r0, [pc, #40]	; (8000988 <LoopFillZerobss+0x18>)
  ldr r3, =_edata
 800095e:	4b0b      	ldr	r3, [pc, #44]	; (800098c <LoopFillZerobss+0x1c>)
  adds r2, r0, r1
 8000960:	1842      	adds	r2, r0, r1
  cmp r2, r3
 8000962:	429a      	cmp	r2, r3
  bcc CopyDataInit
 8000964:	d3f6      	bcc.n	8000954 <CopyDataInit>
  ldr r2, =_sbss
 8000966:	4a0a      	ldr	r2, [pc, #40]	; (8000990 <LoopFillZerobss+0x20>)
  b LoopFillZerobss
 8000968:	e002      	b.n	8000970 <LoopFillZerobss>

0800096a <FillZerobss>:
/* Zero fill the bss segment. */
FillZerobss:
  movs r3, #0
 800096a:	2300      	movs	r3, #0
  str r3, [r2], #4
 800096c:	f842 3b04 	str.w	r3, [r2], #4

08000970 <LoopFillZerobss>:

LoopFillZerobss:
  ldr r3, = _ebss
 8000970:	4b08      	ldr	r3, [pc, #32]	; (8000994 <LoopFillZerobss+0x24>)
  cmp r2, r3
 8000972:	429a      	cmp	r2, r3
  bcc FillZerobss
 8000974:	d3f9      	bcc.n	800096a <FillZerobss>

/* Call the clock system intitialization function.*/
    bl  SystemInit
 8000976:	f7ff ffb7 	bl	80008e8 <SystemInit>
/* Call static constructors */
    bl __libc_init_array
 800097a:	f002 fb31 	bl	8002fe0 <__libc_init_array>
/* Call the application's entry point.*/
  bl main
 800097e:	f7ff fc33 	bl	80001e8 <main>
  bx lr
 8000982:	4770      	bx	lr
  ldr r3, =_sidata
 8000984:	08003f14 	.word	0x08003f14
  ldr r0, =_sdata
 8000988:	20000000 	.word	0x20000000
  ldr r3, =_edata
 800098c:	20000070 	.word	0x20000070
  ldr r2, =_sbss
 8000990:	20000070 	.word	0x20000070
  ldr r3, = _ebss
 8000994:	2000013c 	.word	0x2000013c

08000998 <ADC1_2_IRQHandler>:
 * @retval : None
*/
    .section .text.Default_Handler,"ax",%progbits
Default_Handler:
Infinite_Loop:
  b Infinite_Loop
 8000998:	e7fe      	b.n	8000998 <ADC1_2_IRQHandler>
	...

0800099c <HAL_Init>:
  *         need to ensure that the SysTick time base is always set to 1 millisecond
  *         to have correct HAL operation.
  * @retval HAL status
  */
HAL_StatusTypeDef HAL_Init(void)
{
 800099c:	b580      	push	{r7, lr}
 800099e:	af00      	add	r7, sp, #0
    defined(STM32F102x6) || defined(STM32F102xB) || \
    defined(STM32F103x6) || defined(STM32F103xB) || defined(STM32F103xE) || defined(STM32F103xG) || \
    defined(STM32F105xC) || defined(STM32F107xC)

  /* Prefetch buffer is not available on value line devices */
  __HAL_FLASH_PREFETCH_BUFFER_ENABLE();
 80009a0:	4b08      	ldr	r3, [pc, #32]	; (80009c4 <HAL_Init+0x28>)
 80009a2:	681b      	ldr	r3, [r3, #0]
 80009a4:	4a07      	ldr	r2, [pc, #28]	; (80009c4 <HAL_Init+0x28>)
 80009a6:	f043 0310 	orr.w	r3, r3, #16
 80009aa:	6013      	str	r3, [r2, #0]
#endif
#endif /* PREFETCH_ENABLE */

  /* Set Interrupt Group Priority */
  HAL_NVIC_SetPriorityGrouping(NVIC_PRIORITYGROUP_4);
 80009ac:	2003      	movs	r0, #3
 80009ae:	f000 f929 	bl	8000c04 <HAL_NVIC_SetPriorityGrouping>

  /* Use systick as time base source and configure 1ms tick (default clock after Reset is HSI) */
  HAL_InitTick(TICK_INT_PRIORITY);
 80009b2:	2000      	movs	r0, #0
 80009b4:	f000 f808 	bl	80009c8 <HAL_InitTick>

  /* Init the low level hardware */
  HAL_MspInit();
 80009b8:	f7ff fdea 	bl	8000590 <HAL_MspInit>

  /* Return function status */
  return HAL_OK;
 80009bc:	2300      	movs	r3, #0
}
 80009be:	4618      	mov	r0, r3
 80009c0:	bd80      	pop	{r7, pc}
 80009c2:	bf00      	nop
 80009c4:	40022000 	.word	0x40022000

080009c8 <HAL_InitTick>:
  *       implementation  in user file.
  * @param TickPriority Tick interrupt priority.
  * @retval HAL status
  */
__weak HAL_StatusTypeDef HAL_InitTick(uint32_t TickPriority)
{
 80009c8:	b580      	push	{r7, lr}
 80009ca:	b082      	sub	sp, #8
 80009cc:	af00      	add	r7, sp, #0
 80009ce:	6078      	str	r0, [r7, #4]
  /* Configure the SysTick to have interrupt in 1ms time basis*/
  if (HAL_SYSTICK_Config(SystemCoreClock / (1000U / uwTickFreq)) > 0U)
 80009d0:	4b12      	ldr	r3, [pc, #72]	; (8000a1c <HAL_InitTick+0x54>)
 80009d2:	681a      	ldr	r2, [r3, #0]
 80009d4:	4b12      	ldr	r3, [pc, #72]	; (8000a20 <HAL_InitTick+0x58>)
 80009d6:	781b      	ldrb	r3, [r3, #0]
 80009d8:	4619      	mov	r1, r3
 80009da:	f44f 737a 	mov.w	r3, #1000	; 0x3e8
 80009de:	fbb3 f3f1 	udiv	r3, r3, r1
 80009e2:	fbb2 f3f3 	udiv	r3, r2, r3
 80009e6:	4618      	mov	r0, r3
 80009e8:	f000 f933 	bl	8000c52 <HAL_SYSTICK_Config>
 80009ec:	4603      	mov	r3, r0
 80009ee:	2b00      	cmp	r3, #0
 80009f0:	d001      	beq.n	80009f6 <HAL_InitTick+0x2e>
  {
    return HAL_ERROR;
 80009f2:	2301      	movs	r3, #1
 80009f4:	e00e      	b.n	8000a14 <HAL_InitTick+0x4c>
  }

  /* Configure the SysTick IRQ priority */
  if (TickPriority < (1UL << __NVIC_PRIO_BITS))
 80009f6:	687b      	ldr	r3, [r7, #4]
 80009f8:	2b0f      	cmp	r3, #15
 80009fa:	d80a      	bhi.n	8000a12 <HAL_InitTick+0x4a>
  {
    HAL_NVIC_SetPriority(SysTick_IRQn, TickPriority, 0U);
 80009fc:	2200      	movs	r2, #0
 80009fe:	6879      	ldr	r1, [r7, #4]
 8000a00:	f04f 30ff 	mov.w	r0, #4294967295
 8000a04:	f000 f909 	bl	8000c1a <HAL_NVIC_SetPriority>
    uwTickPrio = TickPriority;
 8000a08:	4a06      	ldr	r2, [pc, #24]	; (8000a24 <HAL_InitTick+0x5c>)
 8000a0a:	687b      	ldr	r3, [r7, #4]
 8000a0c:	6013      	str	r3, [r2, #0]
  {
    return HAL_ERROR;
  }

  /* Return function status */
  return HAL_OK;
 8000a0e:	2300      	movs	r3, #0
 8000a10:	e000      	b.n	8000a14 <HAL_InitTick+0x4c>
    return HAL_ERROR;
 8000a12:	2301      	movs	r3, #1
}
 8000a14:	4618      	mov	r0, r3
 8000a16:	3708      	adds	r7, #8
 8000a18:	46bd      	mov	sp, r7
 8000a1a:	bd80      	pop	{r7, pc}
 8000a1c:	20000000 	.word	0x20000000
 8000a20:	20000008 	.word	0x20000008
 8000a24:	20000004 	.word	0x20000004

08000a28 <HAL_IncTick>:
  * @note This function is declared as __weak to be overwritten in case of other
  *      implementations in user file.
  * @retval None
  */
__weak void HAL_IncTick(void)
{
 8000a28:	b480      	push	{r7}
 8000a2a:	af00      	add	r7, sp, #0
  uwTick += uwTickFreq;
 8000a2c:	4b05      	ldr	r3, [pc, #20]	; (8000a44 <HAL_IncTick+0x1c>)
 8000a2e:	781b      	ldrb	r3, [r3, #0]
 8000a30:	461a      	mov	r2, r3
 8000a32:	4b05      	ldr	r3, [pc, #20]	; (8000a48 <HAL_IncTick+0x20>)
 8000a34:	681b      	ldr	r3, [r3, #0]
 8000a36:	4413      	add	r3, r2
 8000a38:	4a03      	ldr	r2, [pc, #12]	; (8000a48 <HAL_IncTick+0x20>)
 8000a3a:	6013      	str	r3, [r2, #0]
}
 8000a3c:	bf00      	nop
 8000a3e:	46bd      	mov	sp, r7
 8000a40:	bc80      	pop	{r7}
 8000a42:	4770      	bx	lr
 8000a44:	20000008 	.word	0x20000008
 8000a48:	20000134 	.word	0x20000134

08000a4c <HAL_GetTick>:
  * @note  This function is declared as __weak to be overwritten in case of other
  *       implementations in user file.
  * @retval tick value
  */
__weak uint32_t HAL_GetTick(void)
{
 8000a4c:	b480      	push	{r7}
 8000a4e:	af00      	add	r7, sp, #0
  return uwTick;
 8000a50:	4b02      	ldr	r3, [pc, #8]	; (8000a5c <HAL_GetTick+0x10>)
 8000a52:	681b      	ldr	r3, [r3, #0]
}
 8000a54:	4618      	mov	r0, r3
 8000a56:	46bd      	mov	sp, r7
 8000a58:	bc80      	pop	{r7}
 8000a5a:	4770      	bx	lr
 8000a5c:	20000134 	.word	0x20000134

08000a60 <HAL_Delay>:
  *       implementations in user file.
  * @param Delay specifies the delay time length, in milliseconds.
  * @retval None
  */
__weak void HAL_Delay(uint32_t Delay)
{
 8000a60:	b580      	push	{r7, lr}
 8000a62:	b084      	sub	sp, #16
 8000a64:	af00      	add	r7, sp, #0
 8000a66:	6078      	str	r0, [r7, #4]
  uint32_t tickstart = HAL_GetTick();
 8000a68:	f7ff fff0 	bl	8000a4c <HAL_GetTick>
 8000a6c:	60b8      	str	r0, [r7, #8]
  uint32_t wait = Delay;
 8000a6e:	687b      	ldr	r3, [r7, #4]
 8000a70:	60fb      	str	r3, [r7, #12]

  /* Add a freq to guarantee minimum wait */
  if (wait < HAL_MAX_DELAY)
 8000a72:	68fb      	ldr	r3, [r7, #12]
 8000a74:	f1b3 3fff 	cmp.w	r3, #4294967295
 8000a78:	d005      	beq.n	8000a86 <HAL_Delay+0x26>
  {
    wait += (uint32_t)(uwTickFreq);
 8000a7a:	4b09      	ldr	r3, [pc, #36]	; (8000aa0 <HAL_Delay+0x40>)
 8000a7c:	781b      	ldrb	r3, [r3, #0]
 8000a7e:	461a      	mov	r2, r3
 8000a80:	68fb      	ldr	r3, [r7, #12]
 8000a82:	4413      	add	r3, r2
 8000a84:	60fb      	str	r3, [r7, #12]
  }

  while ((HAL_GetTick() - tickstart) < wait)
 8000a86:	bf00      	nop
 8000a88:	f7ff ffe0 	bl	8000a4c <HAL_GetTick>
 8000a8c:	4602      	mov	r2, r0
 8000a8e:	68bb      	ldr	r3, [r7, #8]
 8000a90:	1ad3      	subs	r3, r2, r3
 8000a92:	68fa      	ldr	r2, [r7, #12]
 8000a94:	429a      	cmp	r2, r3
 8000a96:	d8f7      	bhi.n	8000a88 <HAL_Delay+0x28>
  {
  }
}
 8000a98:	bf00      	nop
 8000a9a:	3710      	adds	r7, #16
 8000a9c:	46bd      	mov	sp, r7
 8000a9e:	bd80      	pop	{r7, pc}
 8000aa0:	20000008 	.word	0x20000008

08000aa4 <__NVIC_SetPriorityGrouping>:
           In case of a conflict between priority grouping and available
           priority bits (__NVIC_PRIO_BITS), the smallest possible priority group is set.
  \param [in]      PriorityGroup  Priority grouping field.
 */
__STATIC_INLINE void __NVIC_SetPriorityGrouping(uint32_t PriorityGroup)
{
 8000aa4:	b480      	push	{r7}
 8000aa6:	b085      	sub	sp, #20
 8000aa8:	af00      	add	r7, sp, #0
 8000aaa:	6078      	str	r0, [r7, #4]
  uint32_t reg_value;
  uint32_t PriorityGroupTmp = (PriorityGroup & (uint32_t)0x07UL);             /* only values 0..7 are used          */
 8000aac:	687b      	ldr	r3, [r7, #4]
 8000aae:	f003 0307 	and.w	r3, r3, #7
 8000ab2:	60fb      	str	r3, [r7, #12]

  reg_value  =  SCB->AIRCR;                                                   /* read old register configuration    */
 8000ab4:	4b0c      	ldr	r3, [pc, #48]	; (8000ae8 <__NVIC_SetPriorityGrouping+0x44>)
 8000ab6:	68db      	ldr	r3, [r3, #12]
 8000ab8:	60bb      	str	r3, [r7, #8]
  reg_value &= ~((uint32_t)(SCB_AIRCR_VECTKEY_Msk | SCB_AIRCR_PRIGROUP_Msk)); /* clear bits to change               */
 8000aba:	68ba      	ldr	r2, [r7, #8]
 8000abc:	f64f 03ff 	movw	r3, #63743	; 0xf8ff
 8000ac0:	4013      	ands	r3, r2
 8000ac2:	60bb      	str	r3, [r7, #8]
  reg_value  =  (reg_value                                   |
                ((uint32_t)0x5FAUL << SCB_AIRCR_VECTKEY_Pos) |
                (PriorityGroupTmp << SCB_AIRCR_PRIGROUP_Pos) );               /* Insert write key and priority group */
 8000ac4:	68fb      	ldr	r3, [r7, #12]
 8000ac6:	021a      	lsls	r2, r3, #8
                ((uint32_t)0x5FAUL << SCB_AIRCR_VECTKEY_Pos) |
 8000ac8:	68bb      	ldr	r3, [r7, #8]
 8000aca:	4313      	orrs	r3, r2
  reg_value  =  (reg_value                                   |
 8000acc:	f043 63bf 	orr.w	r3, r3, #100139008	; 0x5f80000
 8000ad0:	f443 3300 	orr.w	r3, r3, #131072	; 0x20000
 8000ad4:	60bb      	str	r3, [r7, #8]
  SCB->AIRCR =  reg_value;
 8000ad6:	4a04      	ldr	r2, [pc, #16]	; (8000ae8 <__NVIC_SetPriorityGrouping+0x44>)
 8000ad8:	68bb      	ldr	r3, [r7, #8]
 8000ada:	60d3      	str	r3, [r2, #12]
}
 8000adc:	bf00      	nop
 8000ade:	3714      	adds	r7, #20
 8000ae0:	46bd      	mov	sp, r7
 8000ae2:	bc80      	pop	{r7}
 8000ae4:	4770      	bx	lr
 8000ae6:	bf00      	nop
 8000ae8:	e000ed00 	.word	0xe000ed00

08000aec <__NVIC_GetPriorityGrouping>:
  \brief   Get Priority Grouping
  \details Reads the priority grouping field from the NVIC Interrupt Controller.
  \return                Priority grouping field (SCB->AIRCR [10:8] PRIGROUP field).
 */
__STATIC_INLINE uint32_t __NVIC_GetPriorityGrouping(void)
{
 8000aec:	b480      	push	{r7}
 8000aee:	af00      	add	r7, sp, #0
  return ((uint32_t)((SCB->AIRCR & SCB_AIRCR_PRIGROUP_Msk) >> SCB_AIRCR_PRIGROUP_Pos));
 8000af0:	4b04      	ldr	r3, [pc, #16]	; (8000b04 <__NVIC_GetPriorityGrouping+0x18>)
 8000af2:	68db      	ldr	r3, [r3, #12]
 8000af4:	0a1b      	lsrs	r3, r3, #8
 8000af6:	f003 0307 	and.w	r3, r3, #7
}
 8000afa:	4618      	mov	r0, r3
 8000afc:	46bd      	mov	sp, r7
 8000afe:	bc80      	pop	{r7}
 8000b00:	4770      	bx	lr
 8000b02:	bf00      	nop
 8000b04:	e000ed00 	.word	0xe000ed00

08000b08 <__NVIC_SetPriority>:
  \param [in]      IRQn  Interrupt number.
  \param [in]  priority  Priority to set.
  \note    The priority cannot be set for every processor exception.
 */
__STATIC_INLINE void __NVIC_SetPriority(IRQn_Type IRQn, uint32_t priority)
{
 8000b08:	b480      	push	{r7}
 8000b0a:	b083      	sub	sp, #12
 8000b0c:	af00      	add	r7, sp, #0
 8000b0e:	4603      	mov	r3, r0
 8000b10:	6039      	str	r1, [r7, #0]
 8000b12:	71fb      	strb	r3, [r7, #7]
  if ((int32_t)(IRQn) >= 0)
 8000b14:	f997 3007 	ldrsb.w	r3, [r7, #7]
 8000b18:	2b00      	cmp	r3, #0
 8000b1a:	db0a      	blt.n	8000b32 <__NVIC_SetPriority+0x2a>
  {
    NVIC->IP[((uint32_t)IRQn)]               = (uint8_t)((priority << (8U - __NVIC_PRIO_BITS)) & (uint32_t)0xFFUL);
 8000b1c:	683b      	ldr	r3, [r7, #0]
 8000b1e:	b2da      	uxtb	r2, r3
 8000b20:	490c      	ldr	r1, [pc, #48]	; (8000b54 <__NVIC_SetPriority+0x4c>)
 8000b22:	f997 3007 	ldrsb.w	r3, [r7, #7]
 8000b26:	0112      	lsls	r2, r2, #4
 8000b28:	b2d2      	uxtb	r2, r2
 8000b2a:	440b      	add	r3, r1
 8000b2c:	f883 2300 	strb.w	r2, [r3, #768]	; 0x300
  }
  else
  {
    SCB->SHP[(((uint32_t)IRQn) & 0xFUL)-4UL] = (uint8_t)((priority << (8U - __NVIC_PRIO_BITS)) & (uint32_t)0xFFUL);
  }
}
 8000b30:	e00a      	b.n	8000b48 <__NVIC_SetPriority+0x40>
    SCB->SHP[(((uint32_t)IRQn) & 0xFUL)-4UL] = (uint8_t)((priority << (8U - __NVIC_PRIO_BITS)) & (uint32_t)0xFFUL);
 8000b32:	683b      	ldr	r3, [r7, #0]
 8000b34:	b2da      	uxtb	r2, r3
 8000b36:	4908      	ldr	r1, [pc, #32]	; (8000b58 <__NVIC_SetPriority+0x50>)
 8000b38:	79fb      	ldrb	r3, [r7, #7]
 8000b3a:	f003 030f 	and.w	r3, r3, #15
 8000b3e:	3b04      	subs	r3, #4
 8000b40:	0112      	lsls	r2, r2, #4
 8000b42:	b2d2      	uxtb	r2, r2
 8000b44:	440b      	add	r3, r1
 8000b46:	761a      	strb	r2, [r3, #24]
}
 8000b48:	bf00      	nop
 8000b4a:	370c      	adds	r7, #12
 8000b4c:	46bd      	mov	sp, r7
 8000b4e:	bc80      	pop	{r7}
 8000b50:	4770      	bx	lr
 8000b52:	bf00      	nop
 8000b54:	e000e100 	.word	0xe000e100
 8000b58:	e000ed00 	.word	0xe000ed00

08000b5c <NVIC_EncodePriority>:
  \param [in]   PreemptPriority  Preemptive priority value (starting from 0).
  \param [in]       SubPriority  Subpriority value (starting from 0).
  \return                        Encoded priority. Value can be used in the function \ref NVIC_SetPriority().
 */
__STATIC_INLINE uint32_t NVIC_EncodePriority (uint32_t PriorityGroup, uint32_t PreemptPriority, uint32_t SubPriority)
{
 8000b5c:	b480      	push	{r7}
 8000b5e:	b089      	sub	sp, #36	; 0x24
 8000b60:	af00      	add	r7, sp, #0
 8000b62:	60f8      	str	r0, [r7, #12]
 8000b64:	60b9      	str	r1, [r7, #8]
 8000b66:	607a      	str	r2, [r7, #4]
  uint32_t PriorityGroupTmp = (PriorityGroup & (uint32_t)0x07UL);   /* only values 0..7 are used          */
 8000b68:	68fb      	ldr	r3, [r7, #12]
 8000b6a:	f003 0307 	and.w	r3, r3, #7
 8000b6e:	61fb      	str	r3, [r7, #28]
  uint32_t PreemptPriorityBits;
  uint32_t SubPriorityBits;

  PreemptPriorityBits = ((7UL - PriorityGroupTmp) > (uint32_t)(__NVIC_PRIO_BITS)) ? (uint32_t)(__NVIC_PRIO_BITS) : (uint32_t)(7UL - PriorityGroupTmp);
 8000b70:	69fb      	ldr	r3, [r7, #28]
 8000b72:	f1c3 0307 	rsb	r3, r3, #7
 8000b76:	2b04      	cmp	r3, #4
 8000b78:	bf28      	it	cs
 8000b7a:	2304      	movcs	r3, #4
 8000b7c:	61bb      	str	r3, [r7, #24]
  SubPriorityBits     = ((PriorityGroupTmp + (uint32_t)(__NVIC_PRIO_BITS)) < (uint32_t)7UL) ? (uint32_t)0UL : (uint32_t)((PriorityGroupTmp - 7UL) + (uint32_t)(__NVIC_PRIO_BITS));
 8000b7e:	69fb      	ldr	r3, [r7, #28]
 8000b80:	3304      	adds	r3, #4
 8000b82:	2b06      	cmp	r3, #6
 8000b84:	d902      	bls.n	8000b8c <NVIC_EncodePriority+0x30>
 8000b86:	69fb      	ldr	r3, [r7, #28]
 8000b88:	3b03      	subs	r3, #3
 8000b8a:	e000      	b.n	8000b8e <NVIC_EncodePriority+0x32>
 8000b8c:	2300      	movs	r3, #0
 8000b8e:	617b      	str	r3, [r7, #20]

  return (
           ((PreemptPriority & (uint32_t)((1UL << (PreemptPriorityBits)) - 1UL)) << SubPriorityBits) |
 8000b90:	f04f 32ff 	mov.w	r2, #4294967295
 8000b94:	69bb      	ldr	r3, [r7, #24]
 8000b96:	fa02 f303 	lsl.w	r3, r2, r3
 8000b9a:	43da      	mvns	r2, r3
 8000b9c:	68bb      	ldr	r3, [r7, #8]
 8000b9e:	401a      	ands	r2, r3
 8000ba0:	697b      	ldr	r3, [r7, #20]
 8000ba2:	409a      	lsls	r2, r3
           ((SubPriority     & (uint32_t)((1UL << (SubPriorityBits    )) - 1UL)))
 8000ba4:	f04f 31ff 	mov.w	r1, #4294967295
 8000ba8:	697b      	ldr	r3, [r7, #20]
 8000baa:	fa01 f303 	lsl.w	r3, r1, r3
 8000bae:	43d9      	mvns	r1, r3
 8000bb0:	687b      	ldr	r3, [r7, #4]
 8000bb2:	400b      	ands	r3, r1
           ((PreemptPriority & (uint32_t)((1UL << (PreemptPriorityBits)) - 1UL)) << SubPriorityBits) |
 8000bb4:	4313      	orrs	r3, r2
         );
}
 8000bb6:	4618      	mov	r0, r3
 8000bb8:	3724      	adds	r7, #36	; 0x24
 8000bba:	46bd      	mov	sp, r7
 8000bbc:	bc80      	pop	{r7}
 8000bbe:	4770      	bx	lr

08000bc0 <SysTick_Config>:
  \note    When the variable <b>__Vendor_SysTickConfig</b> is set to 1, then the
           function <b>SysTick_Config</b> is not included. In this case, the file <b><i>device</i>.h</b>
           must contain a vendor-specific implementation of this function.
 */
__STATIC_INLINE uint32_t SysTick_Config(uint32_t ticks)
{
 8000bc0:	b580      	push	{r7, lr}
 8000bc2:	b082      	sub	sp, #8
 8000bc4:	af00      	add	r7, sp, #0
 8000bc6:	6078      	str	r0, [r7, #4]
  if ((ticks - 1UL) > SysTick_LOAD_RELOAD_Msk)
 8000bc8:	687b      	ldr	r3, [r7, #4]
 8000bca:	3b01      	subs	r3, #1
 8000bcc:	f1b3 7f80 	cmp.w	r3, #16777216	; 0x1000000
 8000bd0:	d301      	bcc.n	8000bd6 <SysTick_Config+0x16>
  {
    return (1UL);                                                   /* Reload value impossible */
 8000bd2:	2301      	movs	r3, #1
 8000bd4:	e00f      	b.n	8000bf6 <SysTick_Config+0x36>
  }

  SysTick->LOAD  = (uint32_t)(ticks - 1UL);                         /* set reload register */
 8000bd6:	4a0a      	ldr	r2, [pc, #40]	; (8000c00 <SysTick_Config+0x40>)
 8000bd8:	687b      	ldr	r3, [r7, #4]
 8000bda:	3b01      	subs	r3, #1
 8000bdc:	6053      	str	r3, [r2, #4]
  NVIC_SetPriority (SysTick_IRQn, (1UL << __NVIC_PRIO_BITS) - 1UL); /* set Priority for Systick Interrupt */
 8000bde:	210f      	movs	r1, #15
 8000be0:	f04f 30ff 	mov.w	r0, #4294967295
 8000be4:	f7ff ff90 	bl	8000b08 <__NVIC_SetPriority>
  SysTick->VAL   = 0UL;                                             /* Load the SysTick Counter Value */
 8000be8:	4b05      	ldr	r3, [pc, #20]	; (8000c00 <SysTick_Config+0x40>)
 8000bea:	2200      	movs	r2, #0
 8000bec:	609a      	str	r2, [r3, #8]
  SysTick->CTRL  = SysTick_CTRL_CLKSOURCE_Msk |
 8000bee:	4b04      	ldr	r3, [pc, #16]	; (8000c00 <SysTick_Config+0x40>)
 8000bf0:	2207      	movs	r2, #7
 8000bf2:	601a      	str	r2, [r3, #0]
                   SysTick_CTRL_TICKINT_Msk   |
                   SysTick_CTRL_ENABLE_Msk;                         /* Enable SysTick IRQ and SysTick Timer */
  return (0UL);                                                     /* Function successful */
 8000bf4:	2300      	movs	r3, #0
}
 8000bf6:	4618      	mov	r0, r3
 8000bf8:	3708      	adds	r7, #8
 8000bfa:	46bd      	mov	sp, r7
 8000bfc:	bd80      	pop	{r7, pc}
 8000bfe:	bf00      	nop
 8000c00:	e000e010 	.word	0xe000e010

08000c04 <HAL_NVIC_SetPriorityGrouping>:
  * @note   When the NVIC_PriorityGroup_0 is selected, IRQ preemption is no more possible. 
  *         The pending IRQ priority will be managed only by the subpriority. 
  * @retval None
  */
void HAL_NVIC_SetPriorityGrouping(uint32_t PriorityGroup)
{
 8000c04:	b580      	push	{r7, lr}
 8000c06:	b082      	sub	sp, #8
 8000c08:	af00      	add	r7, sp, #0
 8000c0a:	6078      	str	r0, [r7, #4]
  /* Check the parameters */
  assert_param(IS_NVIC_PRIORITY_GROUP(PriorityGroup));
  
  /* Set the PRIGROUP[10:8] bits according to the PriorityGroup parameter value */
  NVIC_SetPriorityGrouping(PriorityGroup);
 8000c0c:	6878      	ldr	r0, [r7, #4]
 8000c0e:	f7ff ff49 	bl	8000aa4 <__NVIC_SetPriorityGrouping>
}
 8000c12:	bf00      	nop
 8000c14:	3708      	adds	r7, #8
 8000c16:	46bd      	mov	sp, r7
 8000c18:	bd80      	pop	{r7, pc}

08000c1a <HAL_NVIC_SetPriority>:
  *         This parameter can be a value between 0 and 15
  *         A lower priority value indicates a higher priority.          
  * @retval None
  */
void HAL_NVIC_SetPriority(IRQn_Type IRQn, uint32_t PreemptPriority, uint32_t SubPriority)
{ 
 8000c1a:	b580      	push	{r7, lr}
 8000c1c:	b086      	sub	sp, #24
 8000c1e:	af00      	add	r7, sp, #0
 8000c20:	4603      	mov	r3, r0
 8000c22:	60b9      	str	r1, [r7, #8]
 8000c24:	607a      	str	r2, [r7, #4]
 8000c26:	73fb      	strb	r3, [r7, #15]
  uint32_t prioritygroup = 0x00U;
 8000c28:	2300      	movs	r3, #0
 8000c2a:	617b      	str	r3, [r7, #20]
  
  /* Check the parameters */
  assert_param(IS_NVIC_SUB_PRIORITY(SubPriority));
  assert_param(IS_NVIC_PREEMPTION_PRIORITY(PreemptPriority));
  
  prioritygroup = NVIC_GetPriorityGrouping();
 8000c2c:	f7ff ff5e 	bl	8000aec <__NVIC_GetPriorityGrouping>
 8000c30:	6178      	str	r0, [r7, #20]
  
  NVIC_SetPriority(IRQn, NVIC_EncodePriority(prioritygroup, PreemptPriority, SubPriority));
 8000c32:	687a      	ldr	r2, [r7, #4]
 8000c34:	68b9      	ldr	r1, [r7, #8]
 8000c36:	6978      	ldr	r0, [r7, #20]
 8000c38:	f7ff ff90 	bl	8000b5c <NVIC_EncodePriority>
 8000c3c:	4602      	mov	r2, r0
 8000c3e:	f997 300f 	ldrsb.w	r3, [r7, #15]
 8000c42:	4611      	mov	r1, r2
 8000c44:	4618      	mov	r0, r3
 8000c46:	f7ff ff5f 	bl	8000b08 <__NVIC_SetPriority>
}
 8000c4a:	bf00      	nop
 8000c4c:	3718      	adds	r7, #24
 8000c4e:	46bd      	mov	sp, r7
 8000c50:	bd80      	pop	{r7, pc}

08000c52 <HAL_SYSTICK_Config>:
  * @param  TicksNumb: Specifies the ticks Number of ticks between two interrupts.
  * @retval status:  - 0  Function succeeded.
  *                  - 1  Function failed.
  */
uint32_t HAL_SYSTICK_Config(uint32_t TicksNumb)
{
 8000c52:	b580      	push	{r7, lr}
 8000c54:	b082      	sub	sp, #8
 8000c56:	af00      	add	r7, sp, #0
 8000c58:	6078      	str	r0, [r7, #4]
   return SysTick_Config(TicksNumb);
 8000c5a:	6878      	ldr	r0, [r7, #4]
 8000c5c:	f7ff ffb0 	bl	8000bc0 <SysTick_Config>
 8000c60:	4603      	mov	r3, r0
}
 8000c62:	4618      	mov	r0, r3
 8000c64:	3708      	adds	r7, #8
 8000c66:	46bd      	mov	sp, r7
 8000c68:	bd80      	pop	{r7, pc}
	...

08000c6c <HAL_GPIO_Init>:
  * @param  GPIO_Init: pointer to a GPIO_InitTypeDef structure that contains
  *         the configuration information for the specified GPIO peripheral.
  * @retval None
  */
void HAL_GPIO_Init(GPIO_TypeDef  *GPIOx, GPIO_InitTypeDef *GPIO_Init)
{
 8000c6c:	b480      	push	{r7}
 8000c6e:	b08b      	sub	sp, #44	; 0x2c
 8000c70:	af00      	add	r7, sp, #0
 8000c72:	6078      	str	r0, [r7, #4]
 8000c74:	6039      	str	r1, [r7, #0]
  uint32_t position = 0x00u;
 8000c76:	2300      	movs	r3, #0
 8000c78:	627b      	str	r3, [r7, #36]	; 0x24
  uint32_t ioposition;
  uint32_t iocurrent;
  uint32_t temp;
  uint32_t config = 0x00u;
 8000c7a:	2300      	movs	r3, #0
 8000c7c:	623b      	str	r3, [r7, #32]
  assert_param(IS_GPIO_ALL_INSTANCE(GPIOx));
  assert_param(IS_GPIO_PIN(GPIO_Init->Pin));
  assert_param(IS_GPIO_MODE(GPIO_Init->Mode));

  /* Configure the port pins */
  while (((GPIO_Init->Pin) >> position) != 0x00u)
 8000c7e:	e127      	b.n	8000ed0 <HAL_GPIO_Init+0x264>
  {
    /* Get the IO position */
    ioposition = (0x01uL << position);
 8000c80:	2201      	movs	r2, #1
 8000c82:	6a7b      	ldr	r3, [r7, #36]	; 0x24
 8000c84:	fa02 f303 	lsl.w	r3, r2, r3
 8000c88:	61fb      	str	r3, [r7, #28]

    /* Get the current IO position */
    iocurrent = (uint32_t)(GPIO_Init->Pin) & ioposition;
 8000c8a:	683b      	ldr	r3, [r7, #0]
 8000c8c:	681b      	ldr	r3, [r3, #0]
 8000c8e:	69fa      	ldr	r2, [r7, #28]
 8000c90:	4013      	ands	r3, r2
 8000c92:	61bb      	str	r3, [r7, #24]

    if (iocurrent == ioposition)
 8000c94:	69ba      	ldr	r2, [r7, #24]
 8000c96:	69fb      	ldr	r3, [r7, #28]
 8000c98:	429a      	cmp	r2, r3
 8000c9a:	f040 8116 	bne.w	8000eca <HAL_GPIO_Init+0x25e>
    {
      /* Check the Alternate function parameters */
      assert_param(IS_GPIO_AF_INSTANCE(GPIOx));

      /* Based on the required mode, filling config variable with MODEy[1:0] and CNFy[3:2] corresponding bits */
      switch (GPIO_Init->Mode)
 8000c9e:	683b      	ldr	r3, [r7, #0]
 8000ca0:	685b      	ldr	r3, [r3, #4]
 8000ca2:	2b12      	cmp	r3, #18
 8000ca4:	d034      	beq.n	8000d10 <HAL_GPIO_Init+0xa4>
 8000ca6:	2b12      	cmp	r3, #18
 8000ca8:	d80d      	bhi.n	8000cc6 <HAL_GPIO_Init+0x5a>
 8000caa:	2b02      	cmp	r3, #2
 8000cac:	d02b      	beq.n	8000d06 <HAL_GPIO_Init+0x9a>
 8000cae:	2b02      	cmp	r3, #2
 8000cb0:	d804      	bhi.n	8000cbc <HAL_GPIO_Init+0x50>
 8000cb2:	2b00      	cmp	r3, #0
 8000cb4:	d031      	beq.n	8000d1a <HAL_GPIO_Init+0xae>
 8000cb6:	2b01      	cmp	r3, #1
 8000cb8:	d01c      	beq.n	8000cf4 <HAL_GPIO_Init+0x88>
          config = GPIO_CR_MODE_INPUT + GPIO_CR_CNF_ANALOG;
          break;

        /* Parameters are checked with assert_param */
        default:
          break;
 8000cba:	e048      	b.n	8000d4e <HAL_GPIO_Init+0xe2>
      switch (GPIO_Init->Mode)
 8000cbc:	2b03      	cmp	r3, #3
 8000cbe:	d043      	beq.n	8000d48 <HAL_GPIO_Init+0xdc>
 8000cc0:	2b11      	cmp	r3, #17
 8000cc2:	d01b      	beq.n	8000cfc <HAL_GPIO_Init+0x90>
          break;
 8000cc4:	e043      	b.n	8000d4e <HAL_GPIO_Init+0xe2>
      switch (GPIO_Init->Mode)
 8000cc6:	4a89      	ldr	r2, [pc, #548]	; (8000eec <HAL_GPIO_Init+0x280>)
 8000cc8:	4293      	cmp	r3, r2
 8000cca:	d026      	beq.n	8000d1a <HAL_GPIO_Init+0xae>
 8000ccc:	4a87      	ldr	r2, [pc, #540]	; (8000eec <HAL_GPIO_Init+0x280>)
 8000cce:	4293      	cmp	r3, r2
 8000cd0:	d806      	bhi.n	8000ce0 <HAL_GPIO_Init+0x74>
 8000cd2:	4a87      	ldr	r2, [pc, #540]	; (8000ef0 <HAL_GPIO_Init+0x284>)
 8000cd4:	4293      	cmp	r3, r2
 8000cd6:	d020      	beq.n	8000d1a <HAL_GPIO_Init+0xae>
 8000cd8:	4a86      	ldr	r2, [pc, #536]	; (8000ef4 <HAL_GPIO_Init+0x288>)
 8000cda:	4293      	cmp	r3, r2
 8000cdc:	d01d      	beq.n	8000d1a <HAL_GPIO_Init+0xae>
          break;
 8000cde:	e036      	b.n	8000d4e <HAL_GPIO_Init+0xe2>
      switch (GPIO_Init->Mode)
 8000ce0:	4a85      	ldr	r2, [pc, #532]	; (8000ef8 <HAL_GPIO_Init+0x28c>)
 8000ce2:	4293      	cmp	r3, r2
 8000ce4:	d019      	beq.n	8000d1a <HAL_GPIO_Init+0xae>
 8000ce6:	4a85      	ldr	r2, [pc, #532]	; (8000efc <HAL_GPIO_Init+0x290>)
 8000ce8:	4293      	cmp	r3, r2
 8000cea:	d016      	beq.n	8000d1a <HAL_GPIO_Init+0xae>
 8000cec:	4a84      	ldr	r2, [pc, #528]	; (8000f00 <HAL_GPIO_Init+0x294>)
 8000cee:	4293      	cmp	r3, r2
 8000cf0:	d013      	beq.n	8000d1a <HAL_GPIO_Init+0xae>
          break;
 8000cf2:	e02c      	b.n	8000d4e <HAL_GPIO_Init+0xe2>
          config = GPIO_Init->Speed + GPIO_CR_CNF_GP_OUTPUT_PP;
 8000cf4:	683b      	ldr	r3, [r7, #0]
 8000cf6:	68db      	ldr	r3, [r3, #12]
 8000cf8:	623b      	str	r3, [r7, #32]
          break;
 8000cfa:	e028      	b.n	8000d4e <HAL_GPIO_Init+0xe2>
          config = GPIO_Init->Speed + GPIO_CR_CNF_GP_OUTPUT_OD;
 8000cfc:	683b      	ldr	r3, [r7, #0]
 8000cfe:	68db      	ldr	r3, [r3, #12]
 8000d00:	3304      	adds	r3, #4
 8000d02:	623b      	str	r3, [r7, #32]
          break;
 8000d04:	e023      	b.n	8000d4e <HAL_GPIO_Init+0xe2>
          config = GPIO_Init->Speed + GPIO_CR_CNF_AF_OUTPUT_PP;
 8000d06:	683b      	ldr	r3, [r7, #0]
 8000d08:	68db      	ldr	r3, [r3, #12]
 8000d0a:	3308      	adds	r3, #8
 8000d0c:	623b      	str	r3, [r7, #32]
          break;
 8000d0e:	e01e      	b.n	8000d4e <HAL_GPIO_Init+0xe2>
          config = GPIO_Init->Speed + GPIO_CR_CNF_AF_OUTPUT_OD;
 8000d10:	683b      	ldr	r3, [r7, #0]
 8000d12:	68db      	ldr	r3, [r3, #12]
 8000d14:	330c      	adds	r3, #12
 8000d16:	623b      	str	r3, [r7, #32]
          break;
 8000d18:	e019      	b.n	8000d4e <HAL_GPIO_Init+0xe2>
          if (GPIO_Init->Pull == GPIO_NOPULL)
 8000d1a:	683b      	ldr	r3, [r7, #0]
 8000d1c:	689b      	ldr	r3, [r3, #8]
 8000d1e:	2b00      	cmp	r3, #0
 8000d20:	d102      	bne.n	8000d28 <HAL_GPIO_Init+0xbc>
            config = GPIO_CR_MODE_INPUT + GPIO_CR_CNF_INPUT_FLOATING;
 8000d22:	2304      	movs	r3, #4
 8000d24:	623b      	str	r3, [r7, #32]
          break;
 8000d26:	e012      	b.n	8000d4e <HAL_GPIO_Init+0xe2>
          else if (GPIO_Init->Pull == GPIO_PULLUP)
 8000d28:	683b      	ldr	r3, [r7, #0]
 8000d2a:	689b      	ldr	r3, [r3, #8]
 8000d2c:	2b01      	cmp	r3, #1
 8000d2e:	d105      	bne.n	8000d3c <HAL_GPIO_Init+0xd0>
            config = GPIO_CR_MODE_INPUT + GPIO_CR_CNF_INPUT_PU_PD;
 8000d30:	2308      	movs	r3, #8
 8000d32:	623b      	str	r3, [r7, #32]
            GPIOx->BSRR = ioposition;
 8000d34:	687b      	ldr	r3, [r7, #4]
 8000d36:	69fa      	ldr	r2, [r7, #28]
 8000d38:	611a      	str	r2, [r3, #16]
          break;
 8000d3a:	e008      	b.n	8000d4e <HAL_GPIO_Init+0xe2>
            config = GPIO_CR_MODE_INPUT + GPIO_CR_CNF_INPUT_PU_PD;
 8000d3c:	2308      	movs	r3, #8
 8000d3e:	623b      	str	r3, [r7, #32]
            GPIOx->BRR = ioposition;
 8000d40:	687b      	ldr	r3, [r7, #4]
 8000d42:	69fa      	ldr	r2, [r7, #28]
 8000d44:	615a      	str	r2, [r3, #20]
          break;
 8000d46:	e002      	b.n	8000d4e <HAL_GPIO_Init+0xe2>
          config = GPIO_CR_MODE_INPUT + GPIO_CR_CNF_ANALOG;
 8000d48:	2300      	movs	r3, #0
 8000d4a:	623b      	str	r3, [r7, #32]
          break;
 8000d4c:	bf00      	nop
      }

      /* Check if the current bit belongs to first half or last half of the pin count number
       in order to address CRH or CRL register*/
      configregister = (iocurrent < GPIO_PIN_8) ? &GPIOx->CRL     : &GPIOx->CRH;
 8000d4e:	69bb      	ldr	r3, [r7, #24]
 8000d50:	2bff      	cmp	r3, #255	; 0xff
 8000d52:	d801      	bhi.n	8000d58 <HAL_GPIO_Init+0xec>
 8000d54:	687b      	ldr	r3, [r7, #4]
 8000d56:	e001      	b.n	8000d5c <HAL_GPIO_Init+0xf0>
 8000d58:	687b      	ldr	r3, [r7, #4]
 8000d5a:	3304      	adds	r3, #4
 8000d5c:	617b      	str	r3, [r7, #20]
      registeroffset = (iocurrent < GPIO_PIN_8) ? (position << 2u) : ((position - 8u) << 2u);
 8000d5e:	69bb      	ldr	r3, [r7, #24]
 8000d60:	2bff      	cmp	r3, #255	; 0xff
 8000d62:	d802      	bhi.n	8000d6a <HAL_GPIO_Init+0xfe>
 8000d64:	6a7b      	ldr	r3, [r7, #36]	; 0x24
 8000d66:	009b      	lsls	r3, r3, #2
 8000d68:	e002      	b.n	8000d70 <HAL_GPIO_Init+0x104>
 8000d6a:	6a7b      	ldr	r3, [r7, #36]	; 0x24
 8000d6c:	3b08      	subs	r3, #8
 8000d6e:	009b      	lsls	r3, r3, #2
 8000d70:	613b      	str	r3, [r7, #16]

      /* Apply the new configuration of the pin to the register */
      MODIFY_REG((*configregister), ((GPIO_CRL_MODE0 | GPIO_CRL_CNF0) << registeroffset), (config << registeroffset));
 8000d72:	697b      	ldr	r3, [r7, #20]
 8000d74:	681a      	ldr	r2, [r3, #0]
 8000d76:	210f      	movs	r1, #15
 8000d78:	693b      	ldr	r3, [r7, #16]
 8000d7a:	fa01 f303 	lsl.w	r3, r1, r3
 8000d7e:	43db      	mvns	r3, r3
 8000d80:	401a      	ands	r2, r3
 8000d82:	6a39      	ldr	r1, [r7, #32]
 8000d84:	693b      	ldr	r3, [r7, #16]
 8000d86:	fa01 f303 	lsl.w	r3, r1, r3
 8000d8a:	431a      	orrs	r2, r3
 8000d8c:	697b      	ldr	r3, [r7, #20]
 8000d8e:	601a      	str	r2, [r3, #0]

      /*--------------------- EXTI Mode Configuration ------------------------*/
      /* Configure the External Interrupt or event for the current IO */
      if ((GPIO_Init->Mode & EXTI_MODE) == EXTI_MODE)
 8000d90:	683b      	ldr	r3, [r7, #0]
 8000d92:	685b      	ldr	r3, [r3, #4]
 8000d94:	f003 5380 	and.w	r3, r3, #268435456	; 0x10000000
 8000d98:	2b00      	cmp	r3, #0
 8000d9a:	f000 8096 	beq.w	8000eca <HAL_GPIO_Init+0x25e>
      {
        /* Enable AFIO Clock */
        __HAL_RCC_AFIO_CLK_ENABLE();
 8000d9e:	4b59      	ldr	r3, [pc, #356]	; (8000f04 <HAL_GPIO_Init+0x298>)
 8000da0:	699b      	ldr	r3, [r3, #24]
 8000da2:	4a58      	ldr	r2, [pc, #352]	; (8000f04 <HAL_GPIO_Init+0x298>)
 8000da4:	f043 0301 	orr.w	r3, r3, #1
 8000da8:	6193      	str	r3, [r2, #24]
 8000daa:	4b56      	ldr	r3, [pc, #344]	; (8000f04 <HAL_GPIO_Init+0x298>)
 8000dac:	699b      	ldr	r3, [r3, #24]
 8000dae:	f003 0301 	and.w	r3, r3, #1
 8000db2:	60bb      	str	r3, [r7, #8]
 8000db4:	68bb      	ldr	r3, [r7, #8]
        temp = AFIO->EXTICR[position >> 2u];
 8000db6:	4a54      	ldr	r2, [pc, #336]	; (8000f08 <HAL_GPIO_Init+0x29c>)
 8000db8:	6a7b      	ldr	r3, [r7, #36]	; 0x24
 8000dba:	089b      	lsrs	r3, r3, #2
 8000dbc:	3302      	adds	r3, #2
 8000dbe:	f852 3023 	ldr.w	r3, [r2, r3, lsl #2]
 8000dc2:	60fb      	str	r3, [r7, #12]
        CLEAR_BIT(temp, (0x0Fu) << (4u * (position & 0x03u)));
 8000dc4:	6a7b      	ldr	r3, [r7, #36]	; 0x24
 8000dc6:	f003 0303 	and.w	r3, r3, #3
 8000dca:	009b      	lsls	r3, r3, #2
 8000dcc:	220f      	movs	r2, #15
 8000dce:	fa02 f303 	lsl.w	r3, r2, r3
 8000dd2:	43db      	mvns	r3, r3
 8000dd4:	68fa      	ldr	r2, [r7, #12]
 8000dd6:	4013      	ands	r3, r2
 8000dd8:	60fb      	str	r3, [r7, #12]
        SET_BIT(temp, (GPIO_GET_INDEX(GPIOx)) << (4u * (position & 0x03u)));
 8000dda:	687b      	ldr	r3, [r7, #4]
 8000ddc:	4a4b      	ldr	r2, [pc, #300]	; (8000f0c <HAL_GPIO_Init+0x2a0>)
 8000dde:	4293      	cmp	r3, r2
 8000de0:	d013      	beq.n	8000e0a <HAL_GPIO_Init+0x19e>
 8000de2:	687b      	ldr	r3, [r7, #4]
 8000de4:	4a4a      	ldr	r2, [pc, #296]	; (8000f10 <HAL_GPIO_Init+0x2a4>)
 8000de6:	4293      	cmp	r3, r2
 8000de8:	d00d      	beq.n	8000e06 <HAL_GPIO_Init+0x19a>
 8000dea:	687b      	ldr	r3, [r7, #4]
 8000dec:	4a49      	ldr	r2, [pc, #292]	; (8000f14 <HAL_GPIO_Init+0x2a8>)
 8000dee:	4293      	cmp	r3, r2
 8000df0:	d007      	beq.n	8000e02 <HAL_GPIO_Init+0x196>
 8000df2:	687b      	ldr	r3, [r7, #4]
 8000df4:	4a48      	ldr	r2, [pc, #288]	; (8000f18 <HAL_GPIO_Init+0x2ac>)
 8000df6:	4293      	cmp	r3, r2
 8000df8:	d101      	bne.n	8000dfe <HAL_GPIO_Init+0x192>
 8000dfa:	2303      	movs	r3, #3
 8000dfc:	e006      	b.n	8000e0c <HAL_GPIO_Init+0x1a0>
 8000dfe:	2304      	movs	r3, #4
 8000e00:	e004      	b.n	8000e0c <HAL_GPIO_Init+0x1a0>
 8000e02:	2302      	movs	r3, #2
 8000e04:	e002      	b.n	8000e0c <HAL_GPIO_Init+0x1a0>
 8000e06:	2301      	movs	r3, #1
 8000e08:	e000      	b.n	8000e0c <HAL_GPIO_Init+0x1a0>
 8000e0a:	2300      	movs	r3, #0
 8000e0c:	6a7a      	ldr	r2, [r7, #36]	; 0x24
 8000e0e:	f002 0203 	and.w	r2, r2, #3
 8000e12:	0092      	lsls	r2, r2, #2
 8000e14:	4093      	lsls	r3, r2
 8000e16:	68fa      	ldr	r2, [r7, #12]
 8000e18:	4313      	orrs	r3, r2
 8000e1a:	60fb      	str	r3, [r7, #12]
        AFIO->EXTICR[position >> 2u] = temp;
 8000e1c:	493a      	ldr	r1, [pc, #232]	; (8000f08 <HAL_GPIO_Init+0x29c>)
 8000e1e:	6a7b      	ldr	r3, [r7, #36]	; 0x24
 8000e20:	089b      	lsrs	r3, r3, #2
 8000e22:	3302      	adds	r3, #2
 8000e24:	68fa      	ldr	r2, [r7, #12]
 8000e26:	f841 2023 	str.w	r2, [r1, r3, lsl #2]


        /* Configure the interrupt mask */
        if ((GPIO_Init->Mode & GPIO_MODE_IT) == GPIO_MODE_IT)
 8000e2a:	683b      	ldr	r3, [r7, #0]
 8000e2c:	685b      	ldr	r3, [r3, #4]
 8000e2e:	f403 3380 	and.w	r3, r3, #65536	; 0x10000
 8000e32:	2b00      	cmp	r3, #0
 8000e34:	d006      	beq.n	8000e44 <HAL_GPIO_Init+0x1d8>
        {
          SET_BIT(EXTI->IMR, iocurrent);
 8000e36:	4b39      	ldr	r3, [pc, #228]	; (8000f1c <HAL_GPIO_Init+0x2b0>)
 8000e38:	681a      	ldr	r2, [r3, #0]
 8000e3a:	4938      	ldr	r1, [pc, #224]	; (8000f1c <HAL_GPIO_Init+0x2b0>)
 8000e3c:	69bb      	ldr	r3, [r7, #24]
 8000e3e:	4313      	orrs	r3, r2
 8000e40:	600b      	str	r3, [r1, #0]
 8000e42:	e006      	b.n	8000e52 <HAL_GPIO_Init+0x1e6>
        }
        else
        {
          CLEAR_BIT(EXTI->IMR, iocurrent);
 8000e44:	4b35      	ldr	r3, [pc, #212]	; (8000f1c <HAL_GPIO_Init+0x2b0>)
 8000e46:	681a      	ldr	r2, [r3, #0]
 8000e48:	69bb      	ldr	r3, [r7, #24]
 8000e4a:	43db      	mvns	r3, r3
 8000e4c:	4933      	ldr	r1, [pc, #204]	; (8000f1c <HAL_GPIO_Init+0x2b0>)
 8000e4e:	4013      	ands	r3, r2
 8000e50:	600b      	str	r3, [r1, #0]
        }

        /* Configure the event mask */
        if ((GPIO_Init->Mode & GPIO_MODE_EVT) == GPIO_MODE_EVT)
 8000e52:	683b      	ldr	r3, [r7, #0]
 8000e54:	685b      	ldr	r3, [r3, #4]
 8000e56:	f403 3300 	and.w	r3, r3, #131072	; 0x20000
 8000e5a:	2b00      	cmp	r3, #0
 8000e5c:	d006      	beq.n	8000e6c <HAL_GPIO_Init+0x200>
        {
          SET_BIT(EXTI->EMR, iocurrent);
 8000e5e:	4b2f      	ldr	r3, [pc, #188]	; (8000f1c <HAL_GPIO_Init+0x2b0>)
 8000e60:	685a      	ldr	r2, [r3, #4]
 8000e62:	492e      	ldr	r1, [pc, #184]	; (8000f1c <HAL_GPIO_Init+0x2b0>)
 8000e64:	69bb      	ldr	r3, [r7, #24]
 8000e66:	4313      	orrs	r3, r2
 8000e68:	604b      	str	r3, [r1, #4]
 8000e6a:	e006      	b.n	8000e7a <HAL_GPIO_Init+0x20e>
        }
        else
        {
          CLEAR_BIT(EXTI->EMR, iocurrent);
 8000e6c:	4b2b      	ldr	r3, [pc, #172]	; (8000f1c <HAL_GPIO_Init+0x2b0>)
 8000e6e:	685a      	ldr	r2, [r3, #4]
 8000e70:	69bb      	ldr	r3, [r7, #24]
 8000e72:	43db      	mvns	r3, r3
 8000e74:	4929      	ldr	r1, [pc, #164]	; (8000f1c <HAL_GPIO_Init+0x2b0>)
 8000e76:	4013      	ands	r3, r2
 8000e78:	604b      	str	r3, [r1, #4]
        }

        /* Enable or disable the rising trigger */
        if ((GPIO_Init->Mode & RISING_EDGE) == RISING_EDGE)
 8000e7a:	683b      	ldr	r3, [r7, #0]
 8000e7c:	685b      	ldr	r3, [r3, #4]
 8000e7e:	f403 1380 	and.w	r3, r3, #1048576	; 0x100000
 8000e82:	2b00      	cmp	r3, #0
 8000e84:	d006      	beq.n	8000e94 <HAL_GPIO_Init+0x228>
        {
          SET_BIT(EXTI->RTSR, iocurrent);
 8000e86:	4b25      	ldr	r3, [pc, #148]	; (8000f1c <HAL_GPIO_Init+0x2b0>)
 8000e88:	689a      	ldr	r2, [r3, #8]
 8000e8a:	4924      	ldr	r1, [pc, #144]	; (8000f1c <HAL_GPIO_Init+0x2b0>)
 8000e8c:	69bb      	ldr	r3, [r7, #24]
 8000e8e:	4313      	orrs	r3, r2
 8000e90:	608b      	str	r3, [r1, #8]
 8000e92:	e006      	b.n	8000ea2 <HAL_GPIO_Init+0x236>
        }
        else
        {
          CLEAR_BIT(EXTI->RTSR, iocurrent);
 8000e94:	4b21      	ldr	r3, [pc, #132]	; (8000f1c <HAL_GPIO_Init+0x2b0>)
 8000e96:	689a      	ldr	r2, [r3, #8]
 8000e98:	69bb      	ldr	r3, [r7, #24]
 8000e9a:	43db      	mvns	r3, r3
 8000e9c:	491f      	ldr	r1, [pc, #124]	; (8000f1c <HAL_GPIO_Init+0x2b0>)
 8000e9e:	4013      	ands	r3, r2
 8000ea0:	608b      	str	r3, [r1, #8]
        }

        /* Enable or disable the falling trigger */
        if ((GPIO_Init->Mode & FALLING_EDGE) == FALLING_EDGE)
 8000ea2:	683b      	ldr	r3, [r7, #0]
 8000ea4:	685b      	ldr	r3, [r3, #4]
 8000ea6:	f403 1300 	and.w	r3, r3, #2097152	; 0x200000
 8000eaa:	2b00      	cmp	r3, #0
 8000eac:	d006      	beq.n	8000ebc <HAL_GPIO_Init+0x250>
        {
          SET_BIT(EXTI->FTSR, iocurrent);
 8000eae:	4b1b      	ldr	r3, [pc, #108]	; (8000f1c <HAL_GPIO_Init+0x2b0>)
 8000eb0:	68da      	ldr	r2, [r3, #12]
 8000eb2:	491a      	ldr	r1, [pc, #104]	; (8000f1c <HAL_GPIO_Init+0x2b0>)
 8000eb4:	69bb      	ldr	r3, [r7, #24]
 8000eb6:	4313      	orrs	r3, r2
 8000eb8:	60cb      	str	r3, [r1, #12]
 8000eba:	e006      	b.n	8000eca <HAL_GPIO_Init+0x25e>
        }
        else
        {
          CLEAR_BIT(EXTI->FTSR, iocurrent);
 8000ebc:	4b17      	ldr	r3, [pc, #92]	; (8000f1c <HAL_GPIO_Init+0x2b0>)
 8000ebe:	68da      	ldr	r2, [r3, #12]
 8000ec0:	69bb      	ldr	r3, [r7, #24]
 8000ec2:	43db      	mvns	r3, r3
 8000ec4:	4915      	ldr	r1, [pc, #84]	; (8000f1c <HAL_GPIO_Init+0x2b0>)
 8000ec6:	4013      	ands	r3, r2
 8000ec8:	60cb      	str	r3, [r1, #12]
        }
      }
    }

	position++;
 8000eca:	6a7b      	ldr	r3, [r7, #36]	; 0x24
 8000ecc:	3301      	adds	r3, #1
 8000ece:	627b      	str	r3, [r7, #36]	; 0x24
  while (((GPIO_Init->Pin) >> position) != 0x00u)
 8000ed0:	683b      	ldr	r3, [r7, #0]
 8000ed2:	681a      	ldr	r2, [r3, #0]
 8000ed4:	6a7b      	ldr	r3, [r7, #36]	; 0x24
 8000ed6:	fa22 f303 	lsr.w	r3, r2, r3
 8000eda:	2b00      	cmp	r3, #0
 8000edc:	f47f aed0 	bne.w	8000c80 <HAL_GPIO_Init+0x14>
  }
}
 8000ee0:	bf00      	nop
 8000ee2:	372c      	adds	r7, #44	; 0x2c
 8000ee4:	46bd      	mov	sp, r7
 8000ee6:	bc80      	pop	{r7}
 8000ee8:	4770      	bx	lr
 8000eea:	bf00      	nop
 8000eec:	10210000 	.word	0x10210000
 8000ef0:	10110000 	.word	0x10110000
 8000ef4:	10120000 	.word	0x10120000
 8000ef8:	10310000 	.word	0x10310000
 8000efc:	10320000 	.word	0x10320000
 8000f00:	10220000 	.word	0x10220000
 8000f04:	40021000 	.word	0x40021000
 8000f08:	40010000 	.word	0x40010000
 8000f0c:	40010800 	.word	0x40010800
 8000f10:	40010c00 	.word	0x40010c00
 8000f14:	40011000 	.word	0x40011000
 8000f18:	40011400 	.word	0x40011400
 8000f1c:	40010400 	.word	0x40010400

08000f20 <HAL_GPIO_WritePin>:
  *            @arg GPIO_PIN_RESET: to clear the port pin
  *            @arg GPIO_PIN_SET: to set the port pin
  * @retval None
  */
void HAL_GPIO_WritePin(GPIO_TypeDef *GPIOx, uint16_t GPIO_Pin, GPIO_PinState PinState)
{
 8000f20:	b480      	push	{r7}
 8000f22:	b083      	sub	sp, #12
 8000f24:	af00      	add	r7, sp, #0
 8000f26:	6078      	str	r0, [r7, #4]
 8000f28:	460b      	mov	r3, r1
 8000f2a:	807b      	strh	r3, [r7, #2]
 8000f2c:	4613      	mov	r3, r2
 8000f2e:	707b      	strb	r3, [r7, #1]
  /* Check the parameters */
  assert_param(IS_GPIO_PIN(GPIO_Pin));
  assert_param(IS_GPIO_PIN_ACTION(PinState));

  if (PinState != GPIO_PIN_RESET)
 8000f30:	787b      	ldrb	r3, [r7, #1]
 8000f32:	2b00      	cmp	r3, #0
 8000f34:	d003      	beq.n	8000f3e <HAL_GPIO_WritePin+0x1e>
  {
    GPIOx->BSRR = GPIO_Pin;
 8000f36:	887a      	ldrh	r2, [r7, #2]
 8000f38:	687b      	ldr	r3, [r7, #4]
 8000f3a:	611a      	str	r2, [r3, #16]
  }
  else
  {
    GPIOx->BSRR = (uint32_t)GPIO_Pin << 16u;
  }
}
 8000f3c:	e003      	b.n	8000f46 <HAL_GPIO_WritePin+0x26>
    GPIOx->BSRR = (uint32_t)GPIO_Pin << 16u;
 8000f3e:	887b      	ldrh	r3, [r7, #2]
 8000f40:	041a      	lsls	r2, r3, #16
 8000f42:	687b      	ldr	r3, [r7, #4]
 8000f44:	611a      	str	r2, [r3, #16]
}
 8000f46:	bf00      	nop
 8000f48:	370c      	adds	r7, #12
 8000f4a:	46bd      	mov	sp, r7
 8000f4c:	bc80      	pop	{r7}
 8000f4e:	4770      	bx	lr

08000f50 <HAL_GPIO_TogglePin>:
  * @param  GPIOx: where x can be (A..G depending on device used) to select the GPIO peripheral
  * @param  GPIO_Pin: Specifies the pins to be toggled.
  * @retval None
  */
void HAL_GPIO_TogglePin(GPIO_TypeDef *GPIOx, uint16_t GPIO_Pin)
{
 8000f50:	b480      	push	{r7}
 8000f52:	b083      	sub	sp, #12
 8000f54:	af00      	add	r7, sp, #0
 8000f56:	6078      	str	r0, [r7, #4]
 8000f58:	460b      	mov	r3, r1
 8000f5a:	807b      	strh	r3, [r7, #2]
  /* Check the parameters */
  assert_param(IS_GPIO_PIN(GPIO_Pin));

  if ((GPIOx->ODR & GPIO_Pin) != 0x00u)
 8000f5c:	687b      	ldr	r3, [r7, #4]
 8000f5e:	68da      	ldr	r2, [r3, #12]
 8000f60:	887b      	ldrh	r3, [r7, #2]
 8000f62:	4013      	ands	r3, r2
 8000f64:	2b00      	cmp	r3, #0
 8000f66:	d003      	beq.n	8000f70 <HAL_GPIO_TogglePin+0x20>
  {
    GPIOx->BRR = (uint32_t)GPIO_Pin;
 8000f68:	887a      	ldrh	r2, [r7, #2]
 8000f6a:	687b      	ldr	r3, [r7, #4]
 8000f6c:	615a      	str	r2, [r3, #20]
  }
  else
  {
    GPIOx->BSRR = (uint32_t)GPIO_Pin;
  }
}
 8000f6e:	e002      	b.n	8000f76 <HAL_GPIO_TogglePin+0x26>
    GPIOx->BSRR = (uint32_t)GPIO_Pin;
 8000f70:	887a      	ldrh	r2, [r7, #2]
 8000f72:	687b      	ldr	r3, [r7, #4]
 8000f74:	611a      	str	r2, [r3, #16]
}
 8000f76:	bf00      	nop
 8000f78:	370c      	adds	r7, #12
 8000f7a:	46bd      	mov	sp, r7
 8000f7c:	bc80      	pop	{r7}
 8000f7e:	4770      	bx	lr

08000f80 <HAL_PWR_EnableBkUpAccess>:
  * @note   If the HSE divided by 128 is used as the RTC clock, the
  *         Backup Domain Access should be kept enabled.
  * @retval None
  */
void HAL_PWR_EnableBkUpAccess(void)
{
 8000f80:	b480      	push	{r7}
 8000f82:	af00      	add	r7, sp, #0
  /* Enable access to RTC and backup registers */
  *(__IO uint32_t *) CR_DBP_BB = (uint32_t)ENABLE;
 8000f84:	4b03      	ldr	r3, [pc, #12]	; (8000f94 <HAL_PWR_EnableBkUpAccess+0x14>)
 8000f86:	2201      	movs	r2, #1
 8000f88:	601a      	str	r2, [r3, #0]
}
 8000f8a:	bf00      	nop
 8000f8c:	46bd      	mov	sp, r7
 8000f8e:	bc80      	pop	{r7}
 8000f90:	4770      	bx	lr
 8000f92:	bf00      	nop
 8000f94:	420e0020 	.word	0x420e0020

08000f98 <HAL_RCC_OscConfig>:
  *         supported by this macro. User should request a transition to HSE Off
  *         first and then HSE On or HSE Bypass.
  * @retval HAL status
  */
HAL_StatusTypeDef HAL_RCC_OscConfig(RCC_OscInitTypeDef  *RCC_OscInitStruct)
{
 8000f98:	b580      	push	{r7, lr}
 8000f9a:	b086      	sub	sp, #24
 8000f9c:	af00      	add	r7, sp, #0
 8000f9e:	6078      	str	r0, [r7, #4]
  uint32_t tickstart;
  uint32_t pll_config;

  /* Check Null pointer */
  if (RCC_OscInitStruct == NULL)
 8000fa0:	687b      	ldr	r3, [r7, #4]
 8000fa2:	2b00      	cmp	r3, #0
 8000fa4:	d101      	bne.n	8000faa <HAL_RCC_OscConfig+0x12>
  {
    return HAL_ERROR;
 8000fa6:	2301      	movs	r3, #1
 8000fa8:	e26c      	b.n	8001484 <HAL_RCC_OscConfig+0x4ec>

  /* Check the parameters */
  assert_param(IS_RCC_OSCILLATORTYPE(RCC_OscInitStruct->OscillatorType));

  /*------------------------------- HSE Configuration ------------------------*/
  if (((RCC_OscInitStruct->OscillatorType) & RCC_OSCILLATORTYPE_HSE) == RCC_OSCILLATORTYPE_HSE)
 8000faa:	687b      	ldr	r3, [r7, #4]
 8000fac:	681b      	ldr	r3, [r3, #0]
 8000fae:	f003 0301 	and.w	r3, r3, #1
 8000fb2:	2b00      	cmp	r3, #0
 8000fb4:	f000 8087 	beq.w	80010c6 <HAL_RCC_OscConfig+0x12e>
  {
    /* Check the parameters */
    assert_param(IS_RCC_HSE(RCC_OscInitStruct->HSEState));

    /* When the HSE is used as system clock or clock source for PLL in these cases it is not allowed to be disabled */
    if ((__HAL_RCC_GET_SYSCLK_SOURCE() == RCC_SYSCLKSOURCE_STATUS_HSE)
 8000fb8:	4b92      	ldr	r3, [pc, #584]	; (8001204 <HAL_RCC_OscConfig+0x26c>)
 8000fba:	685b      	ldr	r3, [r3, #4]
 8000fbc:	f003 030c 	and.w	r3, r3, #12
 8000fc0:	2b04      	cmp	r3, #4
 8000fc2:	d00c      	beq.n	8000fde <HAL_RCC_OscConfig+0x46>
        || ((__HAL_RCC_GET_SYSCLK_SOURCE() == RCC_SYSCLKSOURCE_STATUS_PLLCLK) && (__HAL_RCC_GET_PLL_OSCSOURCE() == RCC_PLLSOURCE_HSE)))
 8000fc4:	4b8f      	ldr	r3, [pc, #572]	; (8001204 <HAL_RCC_OscConfig+0x26c>)
 8000fc6:	685b      	ldr	r3, [r3, #4]
 8000fc8:	f003 030c 	and.w	r3, r3, #12
 8000fcc:	2b08      	cmp	r3, #8
 8000fce:	d112      	bne.n	8000ff6 <HAL_RCC_OscConfig+0x5e>
 8000fd0:	4b8c      	ldr	r3, [pc, #560]	; (8001204 <HAL_RCC_OscConfig+0x26c>)
 8000fd2:	685b      	ldr	r3, [r3, #4]
 8000fd4:	f403 3380 	and.w	r3, r3, #65536	; 0x10000
 8000fd8:	f5b3 3f80 	cmp.w	r3, #65536	; 0x10000
 8000fdc:	d10b      	bne.n	8000ff6 <HAL_RCC_OscConfig+0x5e>
    {
      if ((__HAL_RCC_GET_FLAG(RCC_FLAG_HSERDY) != RESET) && (RCC_OscInitStruct->HSEState == RCC_HSE_OFF))
 8000fde:	4b89      	ldr	r3, [pc, #548]	; (8001204 <HAL_RCC_OscConfig+0x26c>)
 8000fe0:	681b      	ldr	r3, [r3, #0]
 8000fe2:	f403 3300 	and.w	r3, r3, #131072	; 0x20000
 8000fe6:	2b00      	cmp	r3, #0
 8000fe8:	d06c      	beq.n	80010c4 <HAL_RCC_OscConfig+0x12c>
 8000fea:	687b      	ldr	r3, [r7, #4]
 8000fec:	685b      	ldr	r3, [r3, #4]
 8000fee:	2b00      	cmp	r3, #0
 8000ff0:	d168      	bne.n	80010c4 <HAL_RCC_OscConfig+0x12c>
      {
        return HAL_ERROR;
 8000ff2:	2301      	movs	r3, #1
 8000ff4:	e246      	b.n	8001484 <HAL_RCC_OscConfig+0x4ec>
      }
    }
    else
    {
      /* Set the new HSE configuration ---------------------------------------*/
      __HAL_RCC_HSE_CONFIG(RCC_OscInitStruct->HSEState);
 8000ff6:	687b      	ldr	r3, [r7, #4]
 8000ff8:	685b      	ldr	r3, [r3, #4]
 8000ffa:	f5b3 3f80 	cmp.w	r3, #65536	; 0x10000
 8000ffe:	d106      	bne.n	800100e <HAL_RCC_OscConfig+0x76>
 8001000:	4b80      	ldr	r3, [pc, #512]	; (8001204 <HAL_RCC_OscConfig+0x26c>)
 8001002:	681b      	ldr	r3, [r3, #0]
 8001004:	4a7f      	ldr	r2, [pc, #508]	; (8001204 <HAL_RCC_OscConfig+0x26c>)
 8001006:	f443 3380 	orr.w	r3, r3, #65536	; 0x10000
 800100a:	6013      	str	r3, [r2, #0]
 800100c:	e02e      	b.n	800106c <HAL_RCC_OscConfig+0xd4>
 800100e:	687b      	ldr	r3, [r7, #4]
 8001010:	685b      	ldr	r3, [r3, #4]
 8001012:	2b00      	cmp	r3, #0
 8001014:	d10c      	bne.n	8001030 <HAL_RCC_OscConfig+0x98>
 8001016:	4b7b      	ldr	r3, [pc, #492]	; (8001204 <HAL_RCC_OscConfig+0x26c>)
 8001018:	681b      	ldr	r3, [r3, #0]
 800101a:	4a7a      	ldr	r2, [pc, #488]	; (8001204 <HAL_RCC_OscConfig+0x26c>)
 800101c:	f423 3380 	bic.w	r3, r3, #65536	; 0x10000
 8001020:	6013      	str	r3, [r2, #0]
 8001022:	4b78      	ldr	r3, [pc, #480]	; (8001204 <HAL_RCC_OscConfig+0x26c>)
 8001024:	681b      	ldr	r3, [r3, #0]
 8001026:	4a77      	ldr	r2, [pc, #476]	; (8001204 <HAL_RCC_OscConfig+0x26c>)
 8001028:	f423 2380 	bic.w	r3, r3, #262144	; 0x40000
 800102c:	6013      	str	r3, [r2, #0]
 800102e:	e01d      	b.n	800106c <HAL_RCC_OscConfig+0xd4>
 8001030:	687b      	ldr	r3, [r7, #4]
 8001032:	685b      	ldr	r3, [r3, #4]
 8001034:	f5b3 2fa0 	cmp.w	r3, #327680	; 0x50000
 8001038:	d10c      	bne.n	8001054 <HAL_RCC_OscConfig+0xbc>
 800103a:	4b72      	ldr	r3, [pc, #456]	; (8001204 <HAL_RCC_OscConfig+0x26c>)
 800103c:	681b      	ldr	r3, [r3, #0]
 800103e:	4a71      	ldr	r2, [pc, #452]	; (8001204 <HAL_RCC_OscConfig+0x26c>)
 8001040:	f443 2380 	orr.w	r3, r3, #262144	; 0x40000
 8001044:	6013      	str	r3, [r2, #0]
 8001046:	4b6f      	ldr	r3, [pc, #444]	; (8001204 <HAL_RCC_OscConfig+0x26c>)
 8001048:	681b      	ldr	r3, [r3, #0]
 800104a:	4a6e      	ldr	r2, [pc, #440]	; (8001204 <HAL_RCC_OscConfig+0x26c>)
 800104c:	f443 3380 	orr.w	r3, r3, #65536	; 0x10000
 8001050:	6013      	str	r3, [r2, #0]
 8001052:	e00b      	b.n	800106c <HAL_RCC_OscConfig+0xd4>
 8001054:	4b6b      	ldr	r3, [pc, #428]	; (8001204 <HAL_RCC_OscConfig+0x26c>)
 8001056:	681b      	ldr	r3, [r3, #0]
 8001058:	4a6a      	ldr	r2, [pc, #424]	; (8001204 <HAL_RCC_OscConfig+0x26c>)
 800105a:	f423 3380 	bic.w	r3, r3, #65536	; 0x10000
 800105e:	6013      	str	r3, [r2, #0]
 8001060:	4b68      	ldr	r3, [pc, #416]	; (8001204 <HAL_RCC_OscConfig+0x26c>)
 8001062:	681b      	ldr	r3, [r3, #0]
 8001064:	4a67      	ldr	r2, [pc, #412]	; (8001204 <HAL_RCC_OscConfig+0x26c>)
 8001066:	f423 2380 	bic.w	r3, r3, #262144	; 0x40000
 800106a:	6013      	str	r3, [r2, #0]


      /* Check the HSE State */
      if (RCC_OscInitStruct->HSEState != RCC_HSE_OFF)
 800106c:	687b      	ldr	r3, [r7, #4]
 800106e:	685b      	ldr	r3, [r3, #4]
 8001070:	2b00      	cmp	r3, #0
 8001072:	d013      	beq.n	800109c <HAL_RCC_OscConfig+0x104>
      {
        /* Get Start Tick */
        tickstart = HAL_GetTick();
 8001074:	f7ff fcea 	bl	8000a4c <HAL_GetTick>
 8001078:	6138      	str	r0, [r7, #16]

        /* Wait till HSE is ready */
        while (__HAL_RCC_GET_FLAG(RCC_FLAG_HSERDY) == RESET)
 800107a:	e008      	b.n	800108e <HAL_RCC_OscConfig+0xf6>
        {
          if ((HAL_GetTick() - tickstart) > HSE_TIMEOUT_VALUE)
 800107c:	f7ff fce6 	bl	8000a4c <HAL_GetTick>
 8001080:	4602      	mov	r2, r0
 8001082:	693b      	ldr	r3, [r7, #16]
 8001084:	1ad3      	subs	r3, r2, r3
 8001086:	2b64      	cmp	r3, #100	; 0x64
 8001088:	d901      	bls.n	800108e <HAL_RCC_OscConfig+0xf6>
          {
            return HAL_TIMEOUT;
 800108a:	2303      	movs	r3, #3
 800108c:	e1fa      	b.n	8001484 <HAL_RCC_OscConfig+0x4ec>
        while (__HAL_RCC_GET_FLAG(RCC_FLAG_HSERDY) == RESET)
 800108e:	4b5d      	ldr	r3, [pc, #372]	; (8001204 <HAL_RCC_OscConfig+0x26c>)
 8001090:	681b      	ldr	r3, [r3, #0]
 8001092:	f403 3300 	and.w	r3, r3, #131072	; 0x20000
 8001096:	2b00      	cmp	r3, #0
 8001098:	d0f0      	beq.n	800107c <HAL_RCC_OscConfig+0xe4>
 800109a:	e014      	b.n	80010c6 <HAL_RCC_OscConfig+0x12e>
        }
      }
      else
      {
        /* Get Start Tick */
        tickstart = HAL_GetTick();
 800109c:	f7ff fcd6 	bl	8000a4c <HAL_GetTick>
 80010a0:	6138      	str	r0, [r7, #16]

        /* Wait till HSE is disabled */
        while (__HAL_RCC_GET_FLAG(RCC_FLAG_HSERDY) != RESET)
 80010a2:	e008      	b.n	80010b6 <HAL_RCC_OscConfig+0x11e>
        {
          if ((HAL_GetTick() - tickstart) > HSE_TIMEOUT_VALUE)
 80010a4:	f7ff fcd2 	bl	8000a4c <HAL_GetTick>
 80010a8:	4602      	mov	r2, r0
 80010aa:	693b      	ldr	r3, [r7, #16]
 80010ac:	1ad3      	subs	r3, r2, r3
 80010ae:	2b64      	cmp	r3, #100	; 0x64
 80010b0:	d901      	bls.n	80010b6 <HAL_RCC_OscConfig+0x11e>
          {
            return HAL_TIMEOUT;
 80010b2:	2303      	movs	r3, #3
 80010b4:	e1e6      	b.n	8001484 <HAL_RCC_OscConfig+0x4ec>
        while (__HAL_RCC_GET_FLAG(RCC_FLAG_HSERDY) != RESET)
 80010b6:	4b53      	ldr	r3, [pc, #332]	; (8001204 <HAL_RCC_OscConfig+0x26c>)
 80010b8:	681b      	ldr	r3, [r3, #0]
 80010ba:	f403 3300 	and.w	r3, r3, #131072	; 0x20000
 80010be:	2b00      	cmp	r3, #0
 80010c0:	d1f0      	bne.n	80010a4 <HAL_RCC_OscConfig+0x10c>
 80010c2:	e000      	b.n	80010c6 <HAL_RCC_OscConfig+0x12e>
      if ((__HAL_RCC_GET_FLAG(RCC_FLAG_HSERDY) != RESET) && (RCC_OscInitStruct->HSEState == RCC_HSE_OFF))
 80010c4:	bf00      	nop
        }
      }
    }
  }
  /*----------------------------- HSI Configuration --------------------------*/
  if (((RCC_OscInitStruct->OscillatorType) & RCC_OSCILLATORTYPE_HSI) == RCC_OSCILLATORTYPE_HSI)
 80010c6:	687b      	ldr	r3, [r7, #4]
 80010c8:	681b      	ldr	r3, [r3, #0]
 80010ca:	f003 0302 	and.w	r3, r3, #2
 80010ce:	2b00      	cmp	r3, #0
 80010d0:	d063      	beq.n	800119a <HAL_RCC_OscConfig+0x202>
    /* Check the parameters */
    assert_param(IS_RCC_HSI(RCC_OscInitStruct->HSIState));
    assert_param(IS_RCC_CALIBRATION_VALUE(RCC_OscInitStruct->HSICalibrationValue));

    /* Check if HSI is used as system clock or as PLL source when PLL is selected as system clock */
    if ((__HAL_RCC_GET_SYSCLK_SOURCE() == RCC_SYSCLKSOURCE_STATUS_HSI)
 80010d2:	4b4c      	ldr	r3, [pc, #304]	; (8001204 <HAL_RCC_OscConfig+0x26c>)
 80010d4:	685b      	ldr	r3, [r3, #4]
 80010d6:	f003 030c 	and.w	r3, r3, #12
 80010da:	2b00      	cmp	r3, #0
 80010dc:	d00b      	beq.n	80010f6 <HAL_RCC_OscConfig+0x15e>
        || ((__HAL_RCC_GET_SYSCLK_SOURCE() == RCC_SYSCLKSOURCE_STATUS_PLLCLK) && (__HAL_RCC_GET_PLL_OSCSOURCE() == RCC_PLLSOURCE_HSI_DIV2)))
 80010de:	4b49      	ldr	r3, [pc, #292]	; (8001204 <HAL_RCC_OscConfig+0x26c>)
 80010e0:	685b      	ldr	r3, [r3, #4]
 80010e2:	f003 030c 	and.w	r3, r3, #12
 80010e6:	2b08      	cmp	r3, #8
 80010e8:	d11c      	bne.n	8001124 <HAL_RCC_OscConfig+0x18c>
 80010ea:	4b46      	ldr	r3, [pc, #280]	; (8001204 <HAL_RCC_OscConfig+0x26c>)
 80010ec:	685b      	ldr	r3, [r3, #4]
 80010ee:	f403 3380 	and.w	r3, r3, #65536	; 0x10000
 80010f2:	2b00      	cmp	r3, #0
 80010f4:	d116      	bne.n	8001124 <HAL_RCC_OscConfig+0x18c>
    {
      /* When HSI is used as system clock it will not disabled */
      if ((__HAL_RCC_GET_FLAG(RCC_FLAG_HSIRDY) != RESET) && (RCC_OscInitStruct->HSIState != RCC_HSI_ON))
 80010f6:	4b43      	ldr	r3, [pc, #268]	; (8001204 <HAL_RCC_OscConfig+0x26c>)
 80010f8:	681b      	ldr	r3, [r3, #0]
 80010fa:	f003 0302 	and.w	r3, r3, #2
 80010fe:	2b00      	cmp	r3, #0
 8001100:	d005      	beq.n	800110e <HAL_RCC_OscConfig+0x176>
 8001102:	687b      	ldr	r3, [r7, #4]
 8001104:	691b      	ldr	r3, [r3, #16]
 8001106:	2b01      	cmp	r3, #1
 8001108:	d001      	beq.n	800110e <HAL_RCC_OscConfig+0x176>
      {
        return HAL_ERROR;
 800110a:	2301      	movs	r3, #1
 800110c:	e1ba      	b.n	8001484 <HAL_RCC_OscConfig+0x4ec>
      }
      /* Otherwise, just the calibration is allowed */
      else
      {
        /* Adjusts the Internal High Speed oscillator (HSI) calibration value.*/
        __HAL_RCC_HSI_CALIBRATIONVALUE_ADJUST(RCC_OscInitStruct->HSICalibrationValue);
 800110e:	4b3d      	ldr	r3, [pc, #244]	; (8001204 <HAL_RCC_OscConfig+0x26c>)
 8001110:	681b      	ldr	r3, [r3, #0]
 8001112:	f023 02f8 	bic.w	r2, r3, #248	; 0xf8
 8001116:	687b      	ldr	r3, [r7, #4]
 8001118:	695b      	ldr	r3, [r3, #20]
 800111a:	00db      	lsls	r3, r3, #3
 800111c:	4939      	ldr	r1, [pc, #228]	; (8001204 <HAL_RCC_OscConfig+0x26c>)
 800111e:	4313      	orrs	r3, r2
 8001120:	600b      	str	r3, [r1, #0]
      if ((__HAL_RCC_GET_FLAG(RCC_FLAG_HSIRDY) != RESET) && (RCC_OscInitStruct->HSIState != RCC_HSI_ON))
 8001122:	e03a      	b.n	800119a <HAL_RCC_OscConfig+0x202>
      }
    }
    else
    {
      /* Check the HSI State */
      if (RCC_OscInitStruct->HSIState != RCC_HSI_OFF)
 8001124:	687b      	ldr	r3, [r7, #4]
 8001126:	691b      	ldr	r3, [r3, #16]
 8001128:	2b00      	cmp	r3, #0
 800112a:	d020      	beq.n	800116e <HAL_RCC_OscConfig+0x1d6>
      {
        /* Enable the Internal High Speed oscillator (HSI). */
        __HAL_RCC_HSI_ENABLE();
 800112c:	4b36      	ldr	r3, [pc, #216]	; (8001208 <HAL_RCC_OscConfig+0x270>)
 800112e:	2201      	movs	r2, #1
 8001130:	601a      	str	r2, [r3, #0]

        /* Get Start Tick */
        tickstart = HAL_GetTick();
 8001132:	f7ff fc8b 	bl	8000a4c <HAL_GetTick>
 8001136:	6138      	str	r0, [r7, #16]

        /* Wait till HSI is ready */
        while (__HAL_RCC_GET_FLAG(RCC_FLAG_HSIRDY) == RESET)
 8001138:	e008      	b.n	800114c <HAL_RCC_OscConfig+0x1b4>
        {
          if ((HAL_GetTick() - tickstart) > HSI_TIMEOUT_VALUE)
 800113a:	f7ff fc87 	bl	8000a4c <HAL_GetTick>
 800113e:	4602      	mov	r2, r0
 8001140:	693b      	ldr	r3, [r7, #16]
 8001142:	1ad3      	subs	r3, r2, r3
 8001144:	2b02      	cmp	r3, #2
 8001146:	d901      	bls.n	800114c <HAL_RCC_OscConfig+0x1b4>
          {
            return HAL_TIMEOUT;
 8001148:	2303      	movs	r3, #3
 800114a:	e19b      	b.n	8001484 <HAL_RCC_OscConfig+0x4ec>
        while (__HAL_RCC_GET_FLAG(RCC_FLAG_HSIRDY) == RESET)
 800114c:	4b2d      	ldr	r3, [pc, #180]	; (8001204 <HAL_RCC_OscConfig+0x26c>)
 800114e:	681b      	ldr	r3, [r3, #0]
 8001150:	f003 0302 	and.w	r3, r3, #2
 8001154:	2b00      	cmp	r3, #0
 8001156:	d0f0      	beq.n	800113a <HAL_RCC_OscConfig+0x1a2>
          }
        }

        /* Adjusts the Internal High Speed oscillator (HSI) calibration value.*/
        __HAL_RCC_HSI_CALIBRATIONVALUE_ADJUST(RCC_OscInitStruct->HSICalibrationValue);
 8001158:	4b2a      	ldr	r3, [pc, #168]	; (8001204 <HAL_RCC_OscConfig+0x26c>)
 800115a:	681b      	ldr	r3, [r3, #0]
 800115c:	f023 02f8 	bic.w	r2, r3, #248	; 0xf8
 8001160:	687b      	ldr	r3, [r7, #4]
 8001162:	695b      	ldr	r3, [r3, #20]
 8001164:	00db      	lsls	r3, r3, #3
 8001166:	4927      	ldr	r1, [pc, #156]	; (8001204 <HAL_RCC_OscConfig+0x26c>)
 8001168:	4313      	orrs	r3, r2
 800116a:	600b      	str	r3, [r1, #0]
 800116c:	e015      	b.n	800119a <HAL_RCC_OscConfig+0x202>
      }
      else
      {
        /* Disable the Internal High Speed oscillator (HSI). */
        __HAL_RCC_HSI_DISABLE();
 800116e:	4b26      	ldr	r3, [pc, #152]	; (8001208 <HAL_RCC_OscConfig+0x270>)
 8001170:	2200      	movs	r2, #0
 8001172:	601a      	str	r2, [r3, #0]

        /* Get Start Tick */
        tickstart = HAL_GetTick();
 8001174:	f7ff fc6a 	bl	8000a4c <HAL_GetTick>
 8001178:	6138      	str	r0, [r7, #16]

        /* Wait till HSI is disabled */
        while (__HAL_RCC_GET_FLAG(RCC_FLAG_HSIRDY) != RESET)
 800117a:	e008      	b.n	800118e <HAL_RCC_OscConfig+0x1f6>
        {
          if ((HAL_GetTick() - tickstart) > HSI_TIMEOUT_VALUE)
 800117c:	f7ff fc66 	bl	8000a4c <HAL_GetTick>
 8001180:	4602      	mov	r2, r0
 8001182:	693b      	ldr	r3, [r7, #16]
 8001184:	1ad3      	subs	r3, r2, r3
 8001186:	2b02      	cmp	r3, #2
 8001188:	d901      	bls.n	800118e <HAL_RCC_OscConfig+0x1f6>
          {
            return HAL_TIMEOUT;
 800118a:	2303      	movs	r3, #3
 800118c:	e17a      	b.n	8001484 <HAL_RCC_OscConfig+0x4ec>
        while (__HAL_RCC_GET_FLAG(RCC_FLAG_HSIRDY) != RESET)
 800118e:	4b1d      	ldr	r3, [pc, #116]	; (8001204 <HAL_RCC_OscConfig+0x26c>)
 8001190:	681b      	ldr	r3, [r3, #0]
 8001192:	f003 0302 	and.w	r3, r3, #2
 8001196:	2b00      	cmp	r3, #0
 8001198:	d1f0      	bne.n	800117c <HAL_RCC_OscConfig+0x1e4>
        }
      }
    }
  }
  /*------------------------------ LSI Configuration -------------------------*/
  if (((RCC_OscInitStruct->OscillatorType) & RCC_OSCILLATORTYPE_LSI) == RCC_OSCILLATORTYPE_LSI)
 800119a:	687b      	ldr	r3, [r7, #4]
 800119c:	681b      	ldr	r3, [r3, #0]
 800119e:	f003 0308 	and.w	r3, r3, #8
 80011a2:	2b00      	cmp	r3, #0
 80011a4:	d03a      	beq.n	800121c <HAL_RCC_OscConfig+0x284>
  {
    /* Check the parameters */
    assert_param(IS_RCC_LSI(RCC_OscInitStruct->LSIState));

    /* Check the LSI State */
    if (RCC_OscInitStruct->LSIState != RCC_LSI_OFF)
 80011a6:	687b      	ldr	r3, [r7, #4]
 80011a8:	699b      	ldr	r3, [r3, #24]
 80011aa:	2b00      	cmp	r3, #0
 80011ac:	d019      	beq.n	80011e2 <HAL_RCC_OscConfig+0x24a>
    {
      /* Enable the Internal Low Speed oscillator (LSI). */
      __HAL_RCC_LSI_ENABLE();
 80011ae:	4b17      	ldr	r3, [pc, #92]	; (800120c <HAL_RCC_OscConfig+0x274>)
 80011b0:	2201      	movs	r2, #1
 80011b2:	601a      	str	r2, [r3, #0]

      /* Get Start Tick */
      tickstart = HAL_GetTick();
 80011b4:	f7ff fc4a 	bl	8000a4c <HAL_GetTick>
 80011b8:	6138      	str	r0, [r7, #16]

      /* Wait till LSI is ready */
      while (__HAL_RCC_GET_FLAG(RCC_FLAG_LSIRDY) == RESET)
 80011ba:	e008      	b.n	80011ce <HAL_RCC_OscConfig+0x236>
      {
        if ((HAL_GetTick() - tickstart) > LSI_TIMEOUT_VALUE)
 80011bc:	f7ff fc46 	bl	8000a4c <HAL_GetTick>
 80011c0:	4602      	mov	r2, r0
 80011c2:	693b      	ldr	r3, [r7, #16]
 80011c4:	1ad3      	subs	r3, r2, r3
 80011c6:	2b02      	cmp	r3, #2
 80011c8:	d901      	bls.n	80011ce <HAL_RCC_OscConfig+0x236>
        {
          return HAL_TIMEOUT;
 80011ca:	2303      	movs	r3, #3
 80011cc:	e15a      	b.n	8001484 <HAL_RCC_OscConfig+0x4ec>
      while (__HAL_RCC_GET_FLAG(RCC_FLAG_LSIRDY) == RESET)
 80011ce:	4b0d      	ldr	r3, [pc, #52]	; (8001204 <HAL_RCC_OscConfig+0x26c>)
 80011d0:	6a5b      	ldr	r3, [r3, #36]	; 0x24
 80011d2:	f003 0302 	and.w	r3, r3, #2
 80011d6:	2b00      	cmp	r3, #0
 80011d8:	d0f0      	beq.n	80011bc <HAL_RCC_OscConfig+0x224>
        }
      }
      /*  To have a fully stabilized clock in the specified range, a software delay of 1ms
          should be added.*/
      RCC_Delay(1);
 80011da:	2001      	movs	r0, #1
 80011dc:	f000 fada 	bl	8001794 <RCC_Delay>
 80011e0:	e01c      	b.n	800121c <HAL_RCC_OscConfig+0x284>
    }
    else
    {
      /* Disable the Internal Low Speed oscillator (LSI). */
      __HAL_RCC_LSI_DISABLE();
 80011e2:	4b0a      	ldr	r3, [pc, #40]	; (800120c <HAL_RCC_OscConfig+0x274>)
 80011e4:	2200      	movs	r2, #0
 80011e6:	601a      	str	r2, [r3, #0]

      /* Get Start Tick */
      tickstart = HAL_GetTick();
 80011e8:	f7ff fc30 	bl	8000a4c <HAL_GetTick>
 80011ec:	6138      	str	r0, [r7, #16]

      /* Wait till LSI is disabled */
      while (__HAL_RCC_GET_FLAG(RCC_FLAG_LSIRDY) != RESET)
 80011ee:	e00f      	b.n	8001210 <HAL_RCC_OscConfig+0x278>
      {
        if ((HAL_GetTick() - tickstart) > LSI_TIMEOUT_VALUE)
 80011f0:	f7ff fc2c 	bl	8000a4c <HAL_GetTick>
 80011f4:	4602      	mov	r2, r0
 80011f6:	693b      	ldr	r3, [r7, #16]
 80011f8:	1ad3      	subs	r3, r2, r3
 80011fa:	2b02      	cmp	r3, #2
 80011fc:	d908      	bls.n	8001210 <HAL_RCC_OscConfig+0x278>
        {
          return HAL_TIMEOUT;
 80011fe:	2303      	movs	r3, #3
 8001200:	e140      	b.n	8001484 <HAL_RCC_OscConfig+0x4ec>
 8001202:	bf00      	nop
 8001204:	40021000 	.word	0x40021000
 8001208:	42420000 	.word	0x42420000
 800120c:	42420480 	.word	0x42420480
      while (__HAL_RCC_GET_FLAG(RCC_FLAG_LSIRDY) != RESET)
 8001210:	4b9e      	ldr	r3, [pc, #632]	; (800148c <HAL_RCC_OscConfig+0x4f4>)
 8001212:	6a5b      	ldr	r3, [r3, #36]	; 0x24
 8001214:	f003 0302 	and.w	r3, r3, #2
 8001218:	2b00      	cmp	r3, #0
 800121a:	d1e9      	bne.n	80011f0 <HAL_RCC_OscConfig+0x258>
        }
      }
    }
  }
  /*------------------------------ LSE Configuration -------------------------*/
  if (((RCC_OscInitStruct->OscillatorType) & RCC_OSCILLATORTYPE_LSE) == RCC_OSCILLATORTYPE_LSE)
 800121c:	687b      	ldr	r3, [r7, #4]
 800121e:	681b      	ldr	r3, [r3, #0]
 8001220:	f003 0304 	and.w	r3, r3, #4
 8001224:	2b00      	cmp	r3, #0
 8001226:	f000 80a6 	beq.w	8001376 <HAL_RCC_OscConfig+0x3de>
  {
    FlagStatus       pwrclkchanged = RESET;
 800122a:	2300      	movs	r3, #0
 800122c:	75fb      	strb	r3, [r7, #23]
    /* Check the parameters */
    assert_param(IS_RCC_LSE(RCC_OscInitStruct->LSEState));

    /* Update LSE configuration in Backup Domain control register    */
    /* Requires to enable write access to Backup Domain of necessary */
    if (__HAL_RCC_PWR_IS_CLK_DISABLED())
 800122e:	4b97      	ldr	r3, [pc, #604]	; (800148c <HAL_RCC_OscConfig+0x4f4>)
 8001230:	69db      	ldr	r3, [r3, #28]
 8001232:	f003 5380 	and.w	r3, r3, #268435456	; 0x10000000
 8001236:	2b00      	cmp	r3, #0
 8001238:	d10d      	bne.n	8001256 <HAL_RCC_OscConfig+0x2be>
    {
      __HAL_RCC_PWR_CLK_ENABLE();
 800123a:	4b94      	ldr	r3, [pc, #592]	; (800148c <HAL_RCC_OscConfig+0x4f4>)
 800123c:	69db      	ldr	r3, [r3, #28]
 800123e:	4a93      	ldr	r2, [pc, #588]	; (800148c <HAL_RCC_OscConfig+0x4f4>)
 8001240:	f043 5380 	orr.w	r3, r3, #268435456	; 0x10000000
 8001244:	61d3      	str	r3, [r2, #28]
 8001246:	4b91      	ldr	r3, [pc, #580]	; (800148c <HAL_RCC_OscConfig+0x4f4>)
 8001248:	69db      	ldr	r3, [r3, #28]
 800124a:	f003 5380 	and.w	r3, r3, #268435456	; 0x10000000
 800124e:	60bb      	str	r3, [r7, #8]
 8001250:	68bb      	ldr	r3, [r7, #8]
      pwrclkchanged = SET;
 8001252:	2301      	movs	r3, #1
 8001254:	75fb      	strb	r3, [r7, #23]
    }

    if (HAL_IS_BIT_CLR(PWR->CR, PWR_CR_DBP))
 8001256:	4b8e      	ldr	r3, [pc, #568]	; (8001490 <HAL_RCC_OscConfig+0x4f8>)
 8001258:	681b      	ldr	r3, [r3, #0]
 800125a:	f403 7380 	and.w	r3, r3, #256	; 0x100
 800125e:	2b00      	cmp	r3, #0
 8001260:	d118      	bne.n	8001294 <HAL_RCC_OscConfig+0x2fc>
    {
      /* Enable write access to Backup domain */
      SET_BIT(PWR->CR, PWR_CR_DBP);
 8001262:	4b8b      	ldr	r3, [pc, #556]	; (8001490 <HAL_RCC_OscConfig+0x4f8>)
 8001264:	681b      	ldr	r3, [r3, #0]
 8001266:	4a8a      	ldr	r2, [pc, #552]	; (8001490 <HAL_RCC_OscConfig+0x4f8>)
 8001268:	f443 7380 	orr.w	r3, r3, #256	; 0x100
 800126c:	6013      	str	r3, [r2, #0]

      /* Wait for Backup domain Write protection disable */
      tickstart = HAL_GetTick();
 800126e:	f7ff fbed 	bl	8000a4c <HAL_GetTick>
 8001272:	6138      	str	r0, [r7, #16]

      while (HAL_IS_BIT_CLR(PWR->CR, PWR_CR_DBP))
 8001274:	e008      	b.n	8001288 <HAL_RCC_OscConfig+0x2f0>
      {
        if ((HAL_GetTick() - tickstart) > RCC_DBP_TIMEOUT_VALUE)
 8001276:	f7ff fbe9 	bl	8000a4c <HAL_GetTick>
 800127a:	4602      	mov	r2, r0
 800127c:	693b      	ldr	r3, [r7, #16]
 800127e:	1ad3      	subs	r3, r2, r3
 8001280:	2b64      	cmp	r3, #100	; 0x64
 8001282:	d901      	bls.n	8001288 <HAL_RCC_OscConfig+0x2f0>
        {
          return HAL_TIMEOUT;
 8001284:	2303      	movs	r3, #3
 8001286:	e0fd      	b.n	8001484 <HAL_RCC_OscConfig+0x4ec>
      while (HAL_IS_BIT_CLR(PWR->CR, PWR_CR_DBP))
 8001288:	4b81      	ldr	r3, [pc, #516]	; (8001490 <HAL_RCC_OscConfig+0x4f8>)
 800128a:	681b      	ldr	r3, [r3, #0]
 800128c:	f403 7380 	and.w	r3, r3, #256	; 0x100
 8001290:	2b00      	cmp	r3, #0
 8001292:	d0f0      	beq.n	8001276 <HAL_RCC_OscConfig+0x2de>
        }
      }
    }

    /* Set the new LSE configuration -----------------------------------------*/
    __HAL_RCC_LSE_CONFIG(RCC_OscInitStruct->LSEState);
 8001294:	687b      	ldr	r3, [r7, #4]
 8001296:	68db      	ldr	r3, [r3, #12]
 8001298:	2b01      	cmp	r3, #1
 800129a:	d106      	bne.n	80012aa <HAL_RCC_OscConfig+0x312>
 800129c:	4b7b      	ldr	r3, [pc, #492]	; (800148c <HAL_RCC_OscConfig+0x4f4>)
 800129e:	6a1b      	ldr	r3, [r3, #32]
 80012a0:	4a7a      	ldr	r2, [pc, #488]	; (800148c <HAL_RCC_OscConfig+0x4f4>)
 80012a2:	f043 0301 	orr.w	r3, r3, #1
 80012a6:	6213      	str	r3, [r2, #32]
 80012a8:	e02d      	b.n	8001306 <HAL_RCC_OscConfig+0x36e>
 80012aa:	687b      	ldr	r3, [r7, #4]
 80012ac:	68db      	ldr	r3, [r3, #12]
 80012ae:	2b00      	cmp	r3, #0
 80012b0:	d10c      	bne.n	80012cc <HAL_RCC_OscConfig+0x334>
 80012b2:	4b76      	ldr	r3, [pc, #472]	; (800148c <HAL_RCC_OscConfig+0x4f4>)
 80012b4:	6a1b      	ldr	r3, [r3, #32]
 80012b6:	4a75      	ldr	r2, [pc, #468]	; (800148c <HAL_RCC_OscConfig+0x4f4>)
 80012b8:	f023 0301 	bic.w	r3, r3, #1
 80012bc:	6213      	str	r3, [r2, #32]
 80012be:	4b73      	ldr	r3, [pc, #460]	; (800148c <HAL_RCC_OscConfig+0x4f4>)
 80012c0:	6a1b      	ldr	r3, [r3, #32]
 80012c2:	4a72      	ldr	r2, [pc, #456]	; (800148c <HAL_RCC_OscConfig+0x4f4>)
 80012c4:	f023 0304 	bic.w	r3, r3, #4
 80012c8:	6213      	str	r3, [r2, #32]
 80012ca:	e01c      	b.n	8001306 <HAL_RCC_OscConfig+0x36e>
 80012cc:	687b      	ldr	r3, [r7, #4]
 80012ce:	68db      	ldr	r3, [r3, #12]
 80012d0:	2b05      	cmp	r3, #5
 80012d2:	d10c      	bne.n	80012ee <HAL_RCC_OscConfig+0x356>
 80012d4:	4b6d      	ldr	r3, [pc, #436]	; (800148c <HAL_RCC_OscConfig+0x4f4>)
 80012d6:	6a1b      	ldr	r3, [r3, #32]
 80012d8:	4a6c      	ldr	r2, [pc, #432]	; (800148c <HAL_RCC_OscConfig+0x4f4>)
 80012da:	f043 0304 	orr.w	r3, r3, #4
 80012de:	6213      	str	r3, [r2, #32]
 80012e0:	4b6a      	ldr	r3, [pc, #424]	; (800148c <HAL_RCC_OscConfig+0x4f4>)
 80012e2:	6a1b      	ldr	r3, [r3, #32]
 80012e4:	4a69      	ldr	r2, [pc, #420]	; (800148c <HAL_RCC_OscConfig+0x4f4>)
 80012e6:	f043 0301 	orr.w	r3, r3, #1
 80012ea:	6213      	str	r3, [r2, #32]
 80012ec:	e00b      	b.n	8001306 <HAL_RCC_OscConfig+0x36e>
 80012ee:	4b67      	ldr	r3, [pc, #412]	; (800148c <HAL_RCC_OscConfig+0x4f4>)
 80012f0:	6a1b      	ldr	r3, [r3, #32]
 80012f2:	4a66      	ldr	r2, [pc, #408]	; (800148c <HAL_RCC_OscConfig+0x4f4>)
 80012f4:	f023 0301 	bic.w	r3, r3, #1
 80012f8:	6213      	str	r3, [r2, #32]
 80012fa:	4b64      	ldr	r3, [pc, #400]	; (800148c <HAL_RCC_OscConfig+0x4f4>)
 80012fc:	6a1b      	ldr	r3, [r3, #32]
 80012fe:	4a63      	ldr	r2, [pc, #396]	; (800148c <HAL_RCC_OscConfig+0x4f4>)
 8001300:	f023 0304 	bic.w	r3, r3, #4
 8001304:	6213      	str	r3, [r2, #32]
    /* Check the LSE State */
    if (RCC_OscInitStruct->LSEState != RCC_LSE_OFF)
 8001306:	687b      	ldr	r3, [r7, #4]
 8001308:	68db      	ldr	r3, [r3, #12]
 800130a:	2b00      	cmp	r3, #0
 800130c:	d015      	beq.n	800133a <HAL_RCC_OscConfig+0x3a2>
    {
      /* Get Start Tick */
      tickstart = HAL_GetTick();
 800130e:	f7ff fb9d 	bl	8000a4c <HAL_GetTick>
 8001312:	6138      	str	r0, [r7, #16]

      /* Wait till LSE is ready */
      while (__HAL_RCC_GET_FLAG(RCC_FLAG_LSERDY) == RESET)
 8001314:	e00a      	b.n	800132c <HAL_RCC_OscConfig+0x394>
      {
        if ((HAL_GetTick() - tickstart) > RCC_LSE_TIMEOUT_VALUE)
 8001316:	f7ff fb99 	bl	8000a4c <HAL_GetTick>
 800131a:	4602      	mov	r2, r0
 800131c:	693b      	ldr	r3, [r7, #16]
 800131e:	1ad3      	subs	r3, r2, r3
 8001320:	f241 3288 	movw	r2, #5000	; 0x1388
 8001324:	4293      	cmp	r3, r2
 8001326:	d901      	bls.n	800132c <HAL_RCC_OscConfig+0x394>
        {
          return HAL_TIMEOUT;
 8001328:	2303      	movs	r3, #3
 800132a:	e0ab      	b.n	8001484 <HAL_RCC_OscConfig+0x4ec>
      while (__HAL_RCC_GET_FLAG(RCC_FLAG_LSERDY) == RESET)
 800132c:	4b57      	ldr	r3, [pc, #348]	; (800148c <HAL_RCC_OscConfig+0x4f4>)
 800132e:	6a1b      	ldr	r3, [r3, #32]
 8001330:	f003 0302 	and.w	r3, r3, #2
 8001334:	2b00      	cmp	r3, #0
 8001336:	d0ee      	beq.n	8001316 <HAL_RCC_OscConfig+0x37e>
 8001338:	e014      	b.n	8001364 <HAL_RCC_OscConfig+0x3cc>
      }
    }
    else
    {
      /* Get Start Tick */
      tickstart = HAL_GetTick();
 800133a:	f7ff fb87 	bl	8000a4c <HAL_GetTick>
 800133e:	6138      	str	r0, [r7, #16]

      /* Wait till LSE is disabled */
      while (__HAL_RCC_GET_FLAG(RCC_FLAG_LSERDY) != RESET)
 8001340:	e00a      	b.n	8001358 <HAL_RCC_OscConfig+0x3c0>
      {
        if ((HAL_GetTick() - tickstart) > RCC_LSE_TIMEOUT_VALUE)
 8001342:	f7ff fb83 	bl	8000a4c <HAL_GetTick>
 8001346:	4602      	mov	r2, r0
 8001348:	693b      	ldr	r3, [r7, #16]
 800134a:	1ad3      	subs	r3, r2, r3
 800134c:	f241 3288 	movw	r2, #5000	; 0x1388
 8001350:	4293      	cmp	r3, r2
 8001352:	d901      	bls.n	8001358 <HAL_RCC_OscConfig+0x3c0>
        {
          return HAL_TIMEOUT;
 8001354:	2303      	movs	r3, #3
 8001356:	e095      	b.n	8001484 <HAL_RCC_OscConfig+0x4ec>
      while (__HAL_RCC_GET_FLAG(RCC_FLAG_LSERDY) != RESET)
 8001358:	4b4c      	ldr	r3, [pc, #304]	; (800148c <HAL_RCC_OscConfig+0x4f4>)
 800135a:	6a1b      	ldr	r3, [r3, #32]
 800135c:	f003 0302 	and.w	r3, r3, #2
 8001360:	2b00      	cmp	r3, #0
 8001362:	d1ee      	bne.n	8001342 <HAL_RCC_OscConfig+0x3aa>
        }
      }
    }

    /* Require to disable power clock if necessary */
    if (pwrclkchanged == SET)
 8001364:	7dfb      	ldrb	r3, [r7, #23]
 8001366:	2b01      	cmp	r3, #1
 8001368:	d105      	bne.n	8001376 <HAL_RCC_OscConfig+0x3de>
    {
      __HAL_RCC_PWR_CLK_DISABLE();
 800136a:	4b48      	ldr	r3, [pc, #288]	; (800148c <HAL_RCC_OscConfig+0x4f4>)
 800136c:	69db      	ldr	r3, [r3, #28]
 800136e:	4a47      	ldr	r2, [pc, #284]	; (800148c <HAL_RCC_OscConfig+0x4f4>)
 8001370:	f023 5380 	bic.w	r3, r3, #268435456	; 0x10000000
 8001374:	61d3      	str	r3, [r2, #28]

#endif /* RCC_CR_PLL2ON */
  /*-------------------------------- PLL Configuration -----------------------*/
  /* Check the parameters */
  assert_param(IS_RCC_PLL(RCC_OscInitStruct->PLL.PLLState));
  if ((RCC_OscInitStruct->PLL.PLLState) != RCC_PLL_NONE)
 8001376:	687b      	ldr	r3, [r7, #4]
 8001378:	69db      	ldr	r3, [r3, #28]
 800137a:	2b00      	cmp	r3, #0
 800137c:	f000 8081 	beq.w	8001482 <HAL_RCC_OscConfig+0x4ea>
  {
    /* Check if the PLL is used as system clock or not */
    if (__HAL_RCC_GET_SYSCLK_SOURCE() != RCC_SYSCLKSOURCE_STATUS_PLLCLK)
 8001380:	4b42      	ldr	r3, [pc, #264]	; (800148c <HAL_RCC_OscConfig+0x4f4>)
 8001382:	685b      	ldr	r3, [r3, #4]
 8001384:	f003 030c 	and.w	r3, r3, #12
 8001388:	2b08      	cmp	r3, #8
 800138a:	d061      	beq.n	8001450 <HAL_RCC_OscConfig+0x4b8>
    {
      if ((RCC_OscInitStruct->PLL.PLLState) == RCC_PLL_ON)
 800138c:	687b      	ldr	r3, [r7, #4]
 800138e:	69db      	ldr	r3, [r3, #28]
 8001390:	2b02      	cmp	r3, #2
 8001392:	d146      	bne.n	8001422 <HAL_RCC_OscConfig+0x48a>
        /* Check the parameters */
        assert_param(IS_RCC_PLLSOURCE(RCC_OscInitStruct->PLL.PLLSource));
        assert_param(IS_RCC_PLL_MUL(RCC_OscInitStruct->PLL.PLLMUL));

        /* Disable the main PLL. */
        __HAL_RCC_PLL_DISABLE();
 8001394:	4b3f      	ldr	r3, [pc, #252]	; (8001494 <HAL_RCC_OscConfig+0x4fc>)
 8001396:	2200      	movs	r2, #0
 8001398:	601a      	str	r2, [r3, #0]

        /* Get Start Tick */
        tickstart = HAL_GetTick();
 800139a:	f7ff fb57 	bl	8000a4c <HAL_GetTick>
 800139e:	6138      	str	r0, [r7, #16]

        /* Wait till PLL is disabled */
        while (__HAL_RCC_GET_FLAG(RCC_FLAG_PLLRDY)  != RESET)
 80013a0:	e008      	b.n	80013b4 <HAL_RCC_OscConfig+0x41c>
        {
          if ((HAL_GetTick() - tickstart) > PLL_TIMEOUT_VALUE)
 80013a2:	f7ff fb53 	bl	8000a4c <HAL_GetTick>
 80013a6:	4602      	mov	r2, r0
 80013a8:	693b      	ldr	r3, [r7, #16]
 80013aa:	1ad3      	subs	r3, r2, r3
 80013ac:	2b02      	cmp	r3, #2
 80013ae:	d901      	bls.n	80013b4 <HAL_RCC_OscConfig+0x41c>
          {
            return HAL_TIMEOUT;
 80013b0:	2303      	movs	r3, #3
 80013b2:	e067      	b.n	8001484 <HAL_RCC_OscConfig+0x4ec>
        while (__HAL_RCC_GET_FLAG(RCC_FLAG_PLLRDY)  != RESET)
 80013b4:	4b35      	ldr	r3, [pc, #212]	; (800148c <HAL_RCC_OscConfig+0x4f4>)
 80013b6:	681b      	ldr	r3, [r3, #0]
 80013b8:	f003 7300 	and.w	r3, r3, #33554432	; 0x2000000
 80013bc:	2b00      	cmp	r3, #0
 80013be:	d1f0      	bne.n	80013a2 <HAL_RCC_OscConfig+0x40a>
          }
        }

        /* Configure the HSE prediv factor --------------------------------*/
        /* It can be written only when the PLL is disabled. Not used in PLL source is different than HSE */
        if (RCC_OscInitStruct->PLL.PLLSource == RCC_PLLSOURCE_HSE)
 80013c0:	687b      	ldr	r3, [r7, #4]
 80013c2:	6a1b      	ldr	r3, [r3, #32]
 80013c4:	f5b3 3f80 	cmp.w	r3, #65536	; 0x10000
 80013c8:	d108      	bne.n	80013dc <HAL_RCC_OscConfig+0x444>
          /* Set PREDIV1 source */
          SET_BIT(RCC->CFGR2, RCC_OscInitStruct->Prediv1Source);
#endif /* RCC_CFGR2_PREDIV1SRC */

          /* Set PREDIV1 Value */
          __HAL_RCC_HSE_PREDIV_CONFIG(RCC_OscInitStruct->HSEPredivValue);
 80013ca:	4b30      	ldr	r3, [pc, #192]	; (800148c <HAL_RCC_OscConfig+0x4f4>)
 80013cc:	685b      	ldr	r3, [r3, #4]
 80013ce:	f423 3200 	bic.w	r2, r3, #131072	; 0x20000
 80013d2:	687b      	ldr	r3, [r7, #4]
 80013d4:	689b      	ldr	r3, [r3, #8]
 80013d6:	492d      	ldr	r1, [pc, #180]	; (800148c <HAL_RCC_OscConfig+0x4f4>)
 80013d8:	4313      	orrs	r3, r2
 80013da:	604b      	str	r3, [r1, #4]
        }

        /* Configure the main PLL clock source and multiplication factors. */
        __HAL_RCC_PLL_CONFIG(RCC_OscInitStruct->PLL.PLLSource,
 80013dc:	4b2b      	ldr	r3, [pc, #172]	; (800148c <HAL_RCC_OscConfig+0x4f4>)
 80013de:	685b      	ldr	r3, [r3, #4]
 80013e0:	f423 1274 	bic.w	r2, r3, #3997696	; 0x3d0000
 80013e4:	687b      	ldr	r3, [r7, #4]
 80013e6:	6a19      	ldr	r1, [r3, #32]
 80013e8:	687b      	ldr	r3, [r7, #4]
 80013ea:	6a5b      	ldr	r3, [r3, #36]	; 0x24
 80013ec:	430b      	orrs	r3, r1
 80013ee:	4927      	ldr	r1, [pc, #156]	; (800148c <HAL_RCC_OscConfig+0x4f4>)
 80013f0:	4313      	orrs	r3, r2
 80013f2:	604b      	str	r3, [r1, #4]
                             RCC_OscInitStruct->PLL.PLLMUL);
        /* Enable the main PLL. */
        __HAL_RCC_PLL_ENABLE();
 80013f4:	4b27      	ldr	r3, [pc, #156]	; (8001494 <HAL_RCC_OscConfig+0x4fc>)
 80013f6:	2201      	movs	r2, #1
 80013f8:	601a      	str	r2, [r3, #0]

        /* Get Start Tick */
        tickstart = HAL_GetTick();
 80013fa:	f7ff fb27 	bl	8000a4c <HAL_GetTick>
 80013fe:	6138      	str	r0, [r7, #16]

        /* Wait till PLL is ready */
        while (__HAL_RCC_GET_FLAG(RCC_FLAG_PLLRDY)  == RESET)
 8001400:	e008      	b.n	8001414 <HAL_RCC_OscConfig+0x47c>
        {
          if ((HAL_GetTick() - tickstart) > PLL_TIMEOUT_VALUE)
 8001402:	f7ff fb23 	bl	8000a4c <HAL_GetTick>
 8001406:	4602      	mov	r2, r0
 8001408:	693b      	ldr	r3, [r7, #16]
 800140a:	1ad3      	subs	r3, r2, r3
 800140c:	2b02      	cmp	r3, #2
 800140e:	d901      	bls.n	8001414 <HAL_RCC_OscConfig+0x47c>
          {
            return HAL_TIMEOUT;
 8001410:	2303      	movs	r3, #3
 8001412:	e037      	b.n	8001484 <HAL_RCC_OscConfig+0x4ec>
        while (__HAL_RCC_GET_FLAG(RCC_FLAG_PLLRDY)  == RESET)
 8001414:	4b1d      	ldr	r3, [pc, #116]	; (800148c <HAL_RCC_OscConfig+0x4f4>)
 8001416:	681b      	ldr	r3, [r3, #0]
 8001418:	f003 7300 	and.w	r3, r3, #33554432	; 0x2000000
 800141c:	2b00      	cmp	r3, #0
 800141e:	d0f0      	beq.n	8001402 <HAL_RCC_OscConfig+0x46a>
 8001420:	e02f      	b.n	8001482 <HAL_RCC_OscConfig+0x4ea>
        }
      }
      else
      {
        /* Disable the main PLL. */
        __HAL_RCC_PLL_DISABLE();
 8001422:	4b1c      	ldr	r3, [pc, #112]	; (8001494 <HAL_RCC_OscConfig+0x4fc>)
 8001424:	2200      	movs	r2, #0
 8001426:	601a      	str	r2, [r3, #0]

        /* Get Start Tick */
        tickstart = HAL_GetTick();
 8001428:	f7ff fb10 	bl	8000a4c <HAL_GetTick>
 800142c:	6138      	str	r0, [r7, #16]

        /* Wait till PLL is disabled */
        while (__HAL_RCC_GET_FLAG(RCC_FLAG_PLLRDY)  != RESET)
 800142e:	e008      	b.n	8001442 <HAL_RCC_OscConfig+0x4aa>
        {
          if ((HAL_GetTick() - tickstart) > PLL_TIMEOUT_VALUE)
 8001430:	f7ff fb0c 	bl	8000a4c <HAL_GetTick>
 8001434:	4602      	mov	r2, r0
 8001436:	693b      	ldr	r3, [r7, #16]
 8001438:	1ad3      	subs	r3, r2, r3
 800143a:	2b02      	cmp	r3, #2
 800143c:	d901      	bls.n	8001442 <HAL_RCC_OscConfig+0x4aa>
          {
            return HAL_TIMEOUT;
 800143e:	2303      	movs	r3, #3
 8001440:	e020      	b.n	8001484 <HAL_RCC_OscConfig+0x4ec>
        while (__HAL_RCC_GET_FLAG(RCC_FLAG_PLLRDY)  != RESET)
 8001442:	4b12      	ldr	r3, [pc, #72]	; (800148c <HAL_RCC_OscConfig+0x4f4>)
 8001444:	681b      	ldr	r3, [r3, #0]
 8001446:	f003 7300 	and.w	r3, r3, #33554432	; 0x2000000
 800144a:	2b00      	cmp	r3, #0
 800144c:	d1f0      	bne.n	8001430 <HAL_RCC_OscConfig+0x498>
 800144e:	e018      	b.n	8001482 <HAL_RCC_OscConfig+0x4ea>
      }
    }
    else
    {
      /* Check if there is a request to disable the PLL used as System clock source */
      if ((RCC_OscInitStruct->PLL.PLLState) == RCC_PLL_OFF)
 8001450:	687b      	ldr	r3, [r7, #4]
 8001452:	69db      	ldr	r3, [r3, #28]
 8001454:	2b01      	cmp	r3, #1
 8001456:	d101      	bne.n	800145c <HAL_RCC_OscConfig+0x4c4>
      {
        return HAL_ERROR;
 8001458:	2301      	movs	r3, #1
 800145a:	e013      	b.n	8001484 <HAL_RCC_OscConfig+0x4ec>
      }
      else
      {
        /* Do not return HAL_ERROR if request repeats the current configuration */
        pll_config = RCC->CFGR;
 800145c:	4b0b      	ldr	r3, [pc, #44]	; (800148c <HAL_RCC_OscConfig+0x4f4>)
 800145e:	685b      	ldr	r3, [r3, #4]
 8001460:	60fb      	str	r3, [r7, #12]
        if ((READ_BIT(pll_config, RCC_CFGR_PLLSRC) != RCC_OscInitStruct->PLL.PLLSource) ||
 8001462:	68fb      	ldr	r3, [r7, #12]
 8001464:	f403 3280 	and.w	r2, r3, #65536	; 0x10000
 8001468:	687b      	ldr	r3, [r7, #4]
 800146a:	6a1b      	ldr	r3, [r3, #32]
 800146c:	429a      	cmp	r2, r3
 800146e:	d106      	bne.n	800147e <HAL_RCC_OscConfig+0x4e6>
            (READ_BIT(pll_config, RCC_CFGR_PLLMULL) != RCC_OscInitStruct->PLL.PLLMUL))
 8001470:	68fb      	ldr	r3, [r7, #12]
 8001472:	f403 1270 	and.w	r2, r3, #3932160	; 0x3c0000
 8001476:	687b      	ldr	r3, [r7, #4]
 8001478:	6a5b      	ldr	r3, [r3, #36]	; 0x24
        if ((READ_BIT(pll_config, RCC_CFGR_PLLSRC) != RCC_OscInitStruct->PLL.PLLSource) ||
 800147a:	429a      	cmp	r2, r3
 800147c:	d001      	beq.n	8001482 <HAL_RCC_OscConfig+0x4ea>
        {
          return HAL_ERROR;
 800147e:	2301      	movs	r3, #1
 8001480:	e000      	b.n	8001484 <HAL_RCC_OscConfig+0x4ec>
        }
      }
    }
  }

  return HAL_OK;
 8001482:	2300      	movs	r3, #0
}
 8001484:	4618      	mov	r0, r3
 8001486:	3718      	adds	r7, #24
 8001488:	46bd      	mov	sp, r7
 800148a:	bd80      	pop	{r7, pc}
 800148c:	40021000 	.word	0x40021000
 8001490:	40007000 	.word	0x40007000
 8001494:	42420060 	.word	0x42420060

08001498 <HAL_RCC_ClockConfig>:
  *         You can use @ref HAL_RCC_GetClockConfig() function to know which clock is
  *         currently used as system clock source.
  * @retval HAL status
  */
HAL_StatusTypeDef HAL_RCC_ClockConfig(RCC_ClkInitTypeDef  *RCC_ClkInitStruct, uint32_t FLatency)
{
 8001498:	b580      	push	{r7, lr}
 800149a:	b084      	sub	sp, #16
 800149c:	af00      	add	r7, sp, #0
 800149e:	6078      	str	r0, [r7, #4]
 80014a0:	6039      	str	r1, [r7, #0]
  uint32_t tickstart;

  /* Check Null pointer */
  if (RCC_ClkInitStruct == NULL)
 80014a2:	687b      	ldr	r3, [r7, #4]
 80014a4:	2b00      	cmp	r3, #0
 80014a6:	d101      	bne.n	80014ac <HAL_RCC_ClockConfig+0x14>
  {
    return HAL_ERROR;
 80014a8:	2301      	movs	r3, #1
 80014aa:	e0d0      	b.n	800164e <HAL_RCC_ClockConfig+0x1b6>
  must be correctly programmed according to the frequency of the CPU clock
    (HCLK) of the device. */

#if defined(FLASH_ACR_LATENCY)
  /* Increasing the number of wait states because of higher CPU frequency */
  if (FLatency > __HAL_FLASH_GET_LATENCY())
 80014ac:	4b6a      	ldr	r3, [pc, #424]	; (8001658 <HAL_RCC_ClockConfig+0x1c0>)
 80014ae:	681b      	ldr	r3, [r3, #0]
 80014b0:	f003 0307 	and.w	r3, r3, #7
 80014b4:	683a      	ldr	r2, [r7, #0]
 80014b6:	429a      	cmp	r2, r3
 80014b8:	d910      	bls.n	80014dc <HAL_RCC_ClockConfig+0x44>
  {
    /* Program the new number of wait states to the LATENCY bits in the FLASH_ACR register */
    __HAL_FLASH_SET_LATENCY(FLatency);
 80014ba:	4b67      	ldr	r3, [pc, #412]	; (8001658 <HAL_RCC_ClockConfig+0x1c0>)
 80014bc:	681b      	ldr	r3, [r3, #0]
 80014be:	f023 0207 	bic.w	r2, r3, #7
 80014c2:	4965      	ldr	r1, [pc, #404]	; (8001658 <HAL_RCC_ClockConfig+0x1c0>)
 80014c4:	683b      	ldr	r3, [r7, #0]
 80014c6:	4313      	orrs	r3, r2
 80014c8:	600b      	str	r3, [r1, #0]

    /* Check that the new number of wait states is taken into account to access the Flash
    memory by reading the FLASH_ACR register */
    if (__HAL_FLASH_GET_LATENCY() != FLatency)
 80014ca:	4b63      	ldr	r3, [pc, #396]	; (8001658 <HAL_RCC_ClockConfig+0x1c0>)
 80014cc:	681b      	ldr	r3, [r3, #0]
 80014ce:	f003 0307 	and.w	r3, r3, #7
 80014d2:	683a      	ldr	r2, [r7, #0]
 80014d4:	429a      	cmp	r2, r3
 80014d6:	d001      	beq.n	80014dc <HAL_RCC_ClockConfig+0x44>
  {
    return HAL_ERROR;
 80014d8:	2301      	movs	r3, #1
 80014da:	e0b8      	b.n	800164e <HAL_RCC_ClockConfig+0x1b6>
  }
}

#endif /* FLASH_ACR_LATENCY */
/*-------------------------- HCLK Configuration --------------------------*/
if (((RCC_ClkInitStruct->ClockType) & RCC_CLOCKTYPE_HCLK) == RCC_CLOCKTYPE_HCLK)
 80014dc:	687b      	ldr	r3, [r7, #4]
 80014de:	681b      	ldr	r3, [r3, #0]
 80014e0:	f003 0302 	and.w	r3, r3, #2
 80014e4:	2b00      	cmp	r3, #0
 80014e6:	d020      	beq.n	800152a <HAL_RCC_ClockConfig+0x92>
  {
    /* Set the highest APBx dividers in order to ensure that we do not go through
    a non-spec phase whatever we decrease or increase HCLK. */
    if (((RCC_ClkInitStruct->ClockType) & RCC_CLOCKTYPE_PCLK1) == RCC_CLOCKTYPE_PCLK1)
 80014e8:	687b      	ldr	r3, [r7, #4]
 80014ea:	681b      	ldr	r3, [r3, #0]
 80014ec:	f003 0304 	and.w	r3, r3, #4
 80014f0:	2b00      	cmp	r3, #0
 80014f2:	d005      	beq.n	8001500 <HAL_RCC_ClockConfig+0x68>
    {
      MODIFY_REG(RCC->CFGR, RCC_CFGR_PPRE1, RCC_HCLK_DIV16);
 80014f4:	4b59      	ldr	r3, [pc, #356]	; (800165c <HAL_RCC_ClockConfig+0x1c4>)
 80014f6:	685b      	ldr	r3, [r3, #4]
 80014f8:	4a58      	ldr	r2, [pc, #352]	; (800165c <HAL_RCC_ClockConfig+0x1c4>)
 80014fa:	f443 63e0 	orr.w	r3, r3, #1792	; 0x700
 80014fe:	6053      	str	r3, [r2, #4]
    }

    if (((RCC_ClkInitStruct->ClockType) & RCC_CLOCKTYPE_PCLK2) == RCC_CLOCKTYPE_PCLK2)
 8001500:	687b      	ldr	r3, [r7, #4]
 8001502:	681b      	ldr	r3, [r3, #0]
 8001504:	f003 0308 	and.w	r3, r3, #8
 8001508:	2b00      	cmp	r3, #0
 800150a:	d005      	beq.n	8001518 <HAL_RCC_ClockConfig+0x80>
    {
      MODIFY_REG(RCC->CFGR, RCC_CFGR_PPRE2, (RCC_HCLK_DIV16 << 3));
 800150c:	4b53      	ldr	r3, [pc, #332]	; (800165c <HAL_RCC_ClockConfig+0x1c4>)
 800150e:	685b      	ldr	r3, [r3, #4]
 8001510:	4a52      	ldr	r2, [pc, #328]	; (800165c <HAL_RCC_ClockConfig+0x1c4>)
 8001512:	f443 5360 	orr.w	r3, r3, #14336	; 0x3800
 8001516:	6053      	str	r3, [r2, #4]
    }

    /* Set the new HCLK clock divider */
    assert_param(IS_RCC_HCLK(RCC_ClkInitStruct->AHBCLKDivider));
    MODIFY_REG(RCC->CFGR, RCC_CFGR_HPRE, RCC_ClkInitStruct->AHBCLKDivider);
 8001518:	4b50      	ldr	r3, [pc, #320]	; (800165c <HAL_RCC_ClockConfig+0x1c4>)
 800151a:	685b      	ldr	r3, [r3, #4]
 800151c:	f023 02f0 	bic.w	r2, r3, #240	; 0xf0
 8001520:	687b      	ldr	r3, [r7, #4]
 8001522:	689b      	ldr	r3, [r3, #8]
 8001524:	494d      	ldr	r1, [pc, #308]	; (800165c <HAL_RCC_ClockConfig+0x1c4>)
 8001526:	4313      	orrs	r3, r2
 8001528:	604b      	str	r3, [r1, #4]
  }

  /*------------------------- SYSCLK Configuration ---------------------------*/
  if (((RCC_ClkInitStruct->ClockType) & RCC_CLOCKTYPE_SYSCLK) == RCC_CLOCKTYPE_SYSCLK)
 800152a:	687b      	ldr	r3, [r7, #4]
 800152c:	681b      	ldr	r3, [r3, #0]
 800152e:	f003 0301 	and.w	r3, r3, #1
 8001532:	2b00      	cmp	r3, #0
 8001534:	d040      	beq.n	80015b8 <HAL_RCC_ClockConfig+0x120>
  {
    assert_param(IS_RCC_SYSCLKSOURCE(RCC_ClkInitStruct->SYSCLKSource));

    /* HSE is selected as System Clock Source */
    if (RCC_ClkInitStruct->SYSCLKSource == RCC_SYSCLKSOURCE_HSE)
 8001536:	687b      	ldr	r3, [r7, #4]
 8001538:	685b      	ldr	r3, [r3, #4]
 800153a:	2b01      	cmp	r3, #1
 800153c:	d107      	bne.n	800154e <HAL_RCC_ClockConfig+0xb6>
    {
      /* Check the HSE ready flag */
      if (__HAL_RCC_GET_FLAG(RCC_FLAG_HSERDY) == RESET)
 800153e:	4b47      	ldr	r3, [pc, #284]	; (800165c <HAL_RCC_ClockConfig+0x1c4>)
 8001540:	681b      	ldr	r3, [r3, #0]
 8001542:	f403 3300 	and.w	r3, r3, #131072	; 0x20000
 8001546:	2b00      	cmp	r3, #0
 8001548:	d115      	bne.n	8001576 <HAL_RCC_ClockConfig+0xde>
      {
        return HAL_ERROR;
 800154a:	2301      	movs	r3, #1
 800154c:	e07f      	b.n	800164e <HAL_RCC_ClockConfig+0x1b6>
      }
    }
    /* PLL is selected as System Clock Source */
    else if (RCC_ClkInitStruct->SYSCLKSource == RCC_SYSCLKSOURCE_PLLCLK)
 800154e:	687b      	ldr	r3, [r7, #4]
 8001550:	685b      	ldr	r3, [r3, #4]
 8001552:	2b02      	cmp	r3, #2
 8001554:	d107      	bne.n	8001566 <HAL_RCC_ClockConfig+0xce>
    {
      /* Check the PLL ready flag */
      if (__HAL_RCC_GET_FLAG(RCC_FLAG_PLLRDY) == RESET)
 8001556:	4b41      	ldr	r3, [pc, #260]	; (800165c <HAL_RCC_ClockConfig+0x1c4>)
 8001558:	681b      	ldr	r3, [r3, #0]
 800155a:	f003 7300 	and.w	r3, r3, #33554432	; 0x2000000
 800155e:	2b00      	cmp	r3, #0
 8001560:	d109      	bne.n	8001576 <HAL_RCC_ClockConfig+0xde>
      {
        return HAL_ERROR;
 8001562:	2301      	movs	r3, #1
 8001564:	e073      	b.n	800164e <HAL_RCC_ClockConfig+0x1b6>
    }
    /* HSI is selected as System Clock Source */
    else
    {
      /* Check the HSI ready flag */
      if (__HAL_RCC_GET_FLAG(RCC_FLAG_HSIRDY) == RESET)
 8001566:	4b3d      	ldr	r3, [pc, #244]	; (800165c <HAL_RCC_ClockConfig+0x1c4>)
 8001568:	681b      	ldr	r3, [r3, #0]
 800156a:	f003 0302 	and.w	r3, r3, #2
 800156e:	2b00      	cmp	r3, #0
 8001570:	d101      	bne.n	8001576 <HAL_RCC_ClockConfig+0xde>
      {
        return HAL_ERROR;
 8001572:	2301      	movs	r3, #1
 8001574:	e06b      	b.n	800164e <HAL_RCC_ClockConfig+0x1b6>
      }
    }
    __HAL_RCC_SYSCLK_CONFIG(RCC_ClkInitStruct->SYSCLKSource);
 8001576:	4b39      	ldr	r3, [pc, #228]	; (800165c <HAL_RCC_ClockConfig+0x1c4>)
 8001578:	685b      	ldr	r3, [r3, #4]
 800157a:	f023 0203 	bic.w	r2, r3, #3
 800157e:	687b      	ldr	r3, [r7, #4]
 8001580:	685b      	ldr	r3, [r3, #4]
 8001582:	4936      	ldr	r1, [pc, #216]	; (800165c <HAL_RCC_ClockConfig+0x1c4>)
 8001584:	4313      	orrs	r3, r2
 8001586:	604b      	str	r3, [r1, #4]

    /* Get Start Tick */
    tickstart = HAL_GetTick();
 8001588:	f7ff fa60 	bl	8000a4c <HAL_GetTick>
 800158c:	60f8      	str	r0, [r7, #12]

    while (__HAL_RCC_GET_SYSCLK_SOURCE() != (RCC_ClkInitStruct->SYSCLKSource << RCC_CFGR_SWS_Pos))
 800158e:	e00a      	b.n	80015a6 <HAL_RCC_ClockConfig+0x10e>
    {
      if ((HAL_GetTick() - tickstart) > CLOCKSWITCH_TIMEOUT_VALUE)
 8001590:	f7ff fa5c 	bl	8000a4c <HAL_GetTick>
 8001594:	4602      	mov	r2, r0
 8001596:	68fb      	ldr	r3, [r7, #12]
 8001598:	1ad3      	subs	r3, r2, r3
 800159a:	f241 3288 	movw	r2, #5000	; 0x1388
 800159e:	4293      	cmp	r3, r2
 80015a0:	d901      	bls.n	80015a6 <HAL_RCC_ClockConfig+0x10e>
      {
        return HAL_TIMEOUT;
 80015a2:	2303      	movs	r3, #3
 80015a4:	e053      	b.n	800164e <HAL_RCC_ClockConfig+0x1b6>
    while (__HAL_RCC_GET_SYSCLK_SOURCE() != (RCC_ClkInitStruct->SYSCLKSource << RCC_CFGR_SWS_Pos))
 80015a6:	4b2d      	ldr	r3, [pc, #180]	; (800165c <HAL_RCC_ClockConfig+0x1c4>)
 80015a8:	685b      	ldr	r3, [r3, #4]
 80015aa:	f003 020c 	and.w	r2, r3, #12
 80015ae:	687b      	ldr	r3, [r7, #4]
 80015b0:	685b      	ldr	r3, [r3, #4]
 80015b2:	009b      	lsls	r3, r3, #2
 80015b4:	429a      	cmp	r2, r3
 80015b6:	d1eb      	bne.n	8001590 <HAL_RCC_ClockConfig+0xf8>
    }
  }

#if defined(FLASH_ACR_LATENCY)
  /* Decreasing the number of wait states because of lower CPU frequency */
  if (FLatency < __HAL_FLASH_GET_LATENCY())
 80015b8:	4b27      	ldr	r3, [pc, #156]	; (8001658 <HAL_RCC_ClockConfig+0x1c0>)
 80015ba:	681b      	ldr	r3, [r3, #0]
 80015bc:	f003 0307 	and.w	r3, r3, #7
 80015c0:	683a      	ldr	r2, [r7, #0]
 80015c2:	429a      	cmp	r2, r3
 80015c4:	d210      	bcs.n	80015e8 <HAL_RCC_ClockConfig+0x150>
  {
    /* Program the new number of wait states to the LATENCY bits in the FLASH_ACR register */
    __HAL_FLASH_SET_LATENCY(FLatency);
 80015c6:	4b24      	ldr	r3, [pc, #144]	; (8001658 <HAL_RCC_ClockConfig+0x1c0>)
 80015c8:	681b      	ldr	r3, [r3, #0]
 80015ca:	f023 0207 	bic.w	r2, r3, #7
 80015ce:	4922      	ldr	r1, [pc, #136]	; (8001658 <HAL_RCC_ClockConfig+0x1c0>)
 80015d0:	683b      	ldr	r3, [r7, #0]
 80015d2:	4313      	orrs	r3, r2
 80015d4:	600b      	str	r3, [r1, #0]

    /* Check that the new number of wait states is taken into account to access the Flash
    memory by reading the FLASH_ACR register */
    if (__HAL_FLASH_GET_LATENCY() != FLatency)
 80015d6:	4b20      	ldr	r3, [pc, #128]	; (8001658 <HAL_RCC_ClockConfig+0x1c0>)
 80015d8:	681b      	ldr	r3, [r3, #0]
 80015da:	f003 0307 	and.w	r3, r3, #7
 80015de:	683a      	ldr	r2, [r7, #0]
 80015e0:	429a      	cmp	r2, r3
 80015e2:	d001      	beq.n	80015e8 <HAL_RCC_ClockConfig+0x150>
  {
    return HAL_ERROR;
 80015e4:	2301      	movs	r3, #1
 80015e6:	e032      	b.n	800164e <HAL_RCC_ClockConfig+0x1b6>
  }
}
#endif /* FLASH_ACR_LATENCY */

/*-------------------------- PCLK1 Configuration ---------------------------*/
if (((RCC_ClkInitStruct->ClockType) & RCC_CLOCKTYPE_PCLK1) == RCC_CLOCKTYPE_PCLK1)
 80015e8:	687b      	ldr	r3, [r7, #4]
 80015ea:	681b      	ldr	r3, [r3, #0]
 80015ec:	f003 0304 	and.w	r3, r3, #4
 80015f0:	2b00      	cmp	r3, #0
 80015f2:	d008      	beq.n	8001606 <HAL_RCC_ClockConfig+0x16e>
  {
    assert_param(IS_RCC_PCLK(RCC_ClkInitStruct->APB1CLKDivider));
    MODIFY_REG(RCC->CFGR, RCC_CFGR_PPRE1, RCC_ClkInitStruct->APB1CLKDivider);
 80015f4:	4b19      	ldr	r3, [pc, #100]	; (800165c <HAL_RCC_ClockConfig+0x1c4>)
 80015f6:	685b      	ldr	r3, [r3, #4]
 80015f8:	f423 62e0 	bic.w	r2, r3, #1792	; 0x700
 80015fc:	687b      	ldr	r3, [r7, #4]
 80015fe:	68db      	ldr	r3, [r3, #12]
 8001600:	4916      	ldr	r1, [pc, #88]	; (800165c <HAL_RCC_ClockConfig+0x1c4>)
 8001602:	4313      	orrs	r3, r2
 8001604:	604b      	str	r3, [r1, #4]
  }

  /*-------------------------- PCLK2 Configuration ---------------------------*/
  if (((RCC_ClkInitStruct->ClockType) & RCC_CLOCKTYPE_PCLK2) == RCC_CLOCKTYPE_PCLK2)
 8001606:	687b      	ldr	r3, [r7, #4]
 8001608:	681b      	ldr	r3, [r3, #0]
 800160a:	f003 0308 	and.w	r3, r3, #8
 800160e:	2b00      	cmp	r3, #0
 8001610:	d009      	beq.n	8001626 <HAL_RCC_ClockConfig+0x18e>
  {
    assert_param(IS_RCC_PCLK(RCC_ClkInitStruct->APB2CLKDivider));
    MODIFY_REG(RCC->CFGR, RCC_CFGR_PPRE2, ((RCC_ClkInitStruct->APB2CLKDivider) << 3));
 8001612:	4b12      	ldr	r3, [pc, #72]	; (800165c <HAL_RCC_ClockConfig+0x1c4>)
 8001614:	685b      	ldr	r3, [r3, #4]
 8001616:	f423 5260 	bic.w	r2, r3, #14336	; 0x3800
 800161a:	687b      	ldr	r3, [r7, #4]
 800161c:	691b      	ldr	r3, [r3, #16]
 800161e:	00db      	lsls	r3, r3, #3
 8001620:	490e      	ldr	r1, [pc, #56]	; (800165c <HAL_RCC_ClockConfig+0x1c4>)
 8001622:	4313      	orrs	r3, r2
 8001624:	604b      	str	r3, [r1, #4]
  }

  /* Update the SystemCoreClock global variable */
  SystemCoreClock = HAL_RCC_GetSysClockFreq() >> AHBPrescTable[(RCC->CFGR & RCC_CFGR_HPRE) >> RCC_CFGR_HPRE_Pos];
 8001626:	f000 f821 	bl	800166c <HAL_RCC_GetSysClockFreq>
 800162a:	4601      	mov	r1, r0
 800162c:	4b0b      	ldr	r3, [pc, #44]	; (800165c <HAL_RCC_ClockConfig+0x1c4>)
 800162e:	685b      	ldr	r3, [r3, #4]
 8001630:	091b      	lsrs	r3, r3, #4
 8001632:	f003 030f 	and.w	r3, r3, #15
 8001636:	4a0a      	ldr	r2, [pc, #40]	; (8001660 <HAL_RCC_ClockConfig+0x1c8>)
 8001638:	5cd3      	ldrb	r3, [r2, r3]
 800163a:	fa21 f303 	lsr.w	r3, r1, r3
 800163e:	4a09      	ldr	r2, [pc, #36]	; (8001664 <HAL_RCC_ClockConfig+0x1cc>)
 8001640:	6013      	str	r3, [r2, #0]

  /* Configure the source of time base considering new system clocks settings*/
  HAL_InitTick(uwTickPrio);
 8001642:	4b09      	ldr	r3, [pc, #36]	; (8001668 <HAL_RCC_ClockConfig+0x1d0>)
 8001644:	681b      	ldr	r3, [r3, #0]
 8001646:	4618      	mov	r0, r3
 8001648:	f7ff f9be 	bl	80009c8 <HAL_InitTick>

  return HAL_OK;
 800164c:	2300      	movs	r3, #0
}
 800164e:	4618      	mov	r0, r3
 8001650:	3710      	adds	r7, #16
 8001652:	46bd      	mov	sp, r7
 8001654:	bd80      	pop	{r7, pc}
 8001656:	bf00      	nop
 8001658:	40022000 	.word	0x40022000
 800165c:	40021000 	.word	0x40021000
 8001660:	08003e5c 	.word	0x08003e5c
 8001664:	20000000 	.word	0x20000000
 8001668:	20000004 	.word	0x20000004

0800166c <HAL_RCC_GetSysClockFreq>:
  *         right SYSCLK value. Otherwise, any configuration based on this function will be incorrect.
  *
  * @retval SYSCLK frequency
  */
uint32_t HAL_RCC_GetSysClockFreq(void)
{
 800166c:	b490      	push	{r4, r7}
 800166e:	b08a      	sub	sp, #40	; 0x28
 8001670:	af00      	add	r7, sp, #0
#if defined(RCC_CFGR2_PREDIV1SRC)
  const uint8_t aPLLMULFactorTable[14] = {0, 0, 4, 5, 6, 7, 8, 9, 0, 0, 0, 0, 0, 13};
  const uint8_t aPredivFactorTable[16] = {1, 2, 3, 4, 5, 6, 7, 8, 9, 10, 11, 12, 13, 14, 15, 16};
#else
  const uint8_t aPLLMULFactorTable[16] = {2, 3, 4, 5, 6, 7, 8, 9, 10, 11, 12, 13, 14, 15, 16, 16};
 8001672:	4b2a      	ldr	r3, [pc, #168]	; (800171c <HAL_RCC_GetSysClockFreq+0xb0>)
 8001674:	1d3c      	adds	r4, r7, #4
 8001676:	cb0f      	ldmia	r3, {r0, r1, r2, r3}
 8001678:	e884 000f 	stmia.w	r4, {r0, r1, r2, r3}
#if defined(RCC_CFGR2_PREDIV1)
  const uint8_t aPredivFactorTable[16] = {1, 2, 3, 4, 5, 6, 7, 8, 9, 10, 11, 12, 13, 14, 15, 16};
#else
  const uint8_t aPredivFactorTable[2] = {1, 2};
 800167c:	4b28      	ldr	r3, [pc, #160]	; (8001720 <HAL_RCC_GetSysClockFreq+0xb4>)
 800167e:	881b      	ldrh	r3, [r3, #0]
 8001680:	803b      	strh	r3, [r7, #0]
#endif /*RCC_CFGR2_PREDIV1*/

#endif
  uint32_t tmpreg = 0U, prediv = 0U, pllclk = 0U, pllmul = 0U;
 8001682:	2300      	movs	r3, #0
 8001684:	61fb      	str	r3, [r7, #28]
 8001686:	2300      	movs	r3, #0
 8001688:	61bb      	str	r3, [r7, #24]
 800168a:	2300      	movs	r3, #0
 800168c:	627b      	str	r3, [r7, #36]	; 0x24
 800168e:	2300      	movs	r3, #0
 8001690:	617b      	str	r3, [r7, #20]
  uint32_t sysclockfreq = 0U;
 8001692:	2300      	movs	r3, #0
 8001694:	623b      	str	r3, [r7, #32]
#if defined(RCC_CFGR2_PREDIV1SRC)
  uint32_t prediv2 = 0U, pll2mul = 0U;
#endif /*RCC_CFGR2_PREDIV1SRC*/

  tmpreg = RCC->CFGR;
 8001696:	4b23      	ldr	r3, [pc, #140]	; (8001724 <HAL_RCC_GetSysClockFreq+0xb8>)
 8001698:	685b      	ldr	r3, [r3, #4]
 800169a:	61fb      	str	r3, [r7, #28]

  /* Get SYSCLK source -------------------------------------------------------*/
  switch (tmpreg & RCC_CFGR_SWS)
 800169c:	69fb      	ldr	r3, [r7, #28]
 800169e:	f003 030c 	and.w	r3, r3, #12
 80016a2:	2b04      	cmp	r3, #4
 80016a4:	d002      	beq.n	80016ac <HAL_RCC_GetSysClockFreq+0x40>
 80016a6:	2b08      	cmp	r3, #8
 80016a8:	d003      	beq.n	80016b2 <HAL_RCC_GetSysClockFreq+0x46>
 80016aa:	e02d      	b.n	8001708 <HAL_RCC_GetSysClockFreq+0x9c>
  {
    case RCC_SYSCLKSOURCE_STATUS_HSE:  /* HSE used as system clock */
    {
      sysclockfreq = HSE_VALUE;
 80016ac:	4b1e      	ldr	r3, [pc, #120]	; (8001728 <HAL_RCC_GetSysClockFreq+0xbc>)
 80016ae:	623b      	str	r3, [r7, #32]
      break;
 80016b0:	e02d      	b.n	800170e <HAL_RCC_GetSysClockFreq+0xa2>
    }
    case RCC_SYSCLKSOURCE_STATUS_PLLCLK:  /* PLL used as system clock */
    {
      pllmul = aPLLMULFactorTable[(uint32_t)(tmpreg & RCC_CFGR_PLLMULL) >> RCC_CFGR_PLLMULL_Pos];
 80016b2:	69fb      	ldr	r3, [r7, #28]
 80016b4:	0c9b      	lsrs	r3, r3, #18
 80016b6:	f003 030f 	and.w	r3, r3, #15
 80016ba:	f107 0228 	add.w	r2, r7, #40	; 0x28
 80016be:	4413      	add	r3, r2
 80016c0:	f813 3c24 	ldrb.w	r3, [r3, #-36]
 80016c4:	617b      	str	r3, [r7, #20]
      if ((tmpreg & RCC_CFGR_PLLSRC) != RCC_PLLSOURCE_HSI_DIV2)
 80016c6:	69fb      	ldr	r3, [r7, #28]
 80016c8:	f403 3380 	and.w	r3, r3, #65536	; 0x10000
 80016cc:	2b00      	cmp	r3, #0
 80016ce:	d013      	beq.n	80016f8 <HAL_RCC_GetSysClockFreq+0x8c>
      {
#if defined(RCC_CFGR2_PREDIV1)
        prediv = aPredivFactorTable[(uint32_t)(RCC->CFGR2 & RCC_CFGR2_PREDIV1) >> RCC_CFGR2_PREDIV1_Pos];
#else
        prediv = aPredivFactorTable[(uint32_t)(RCC->CFGR & RCC_CFGR_PLLXTPRE) >> RCC_CFGR_PLLXTPRE_Pos];
 80016d0:	4b14      	ldr	r3, [pc, #80]	; (8001724 <HAL_RCC_GetSysClockFreq+0xb8>)
 80016d2:	685b      	ldr	r3, [r3, #4]
 80016d4:	0c5b      	lsrs	r3, r3, #17
 80016d6:	f003 0301 	and.w	r3, r3, #1
 80016da:	f107 0228 	add.w	r2, r7, #40	; 0x28
 80016de:	4413      	add	r3, r2
 80016e0:	f813 3c28 	ldrb.w	r3, [r3, #-40]
 80016e4:	61bb      	str	r3, [r7, #24]
        {
          pllclk = pllclk / 2;
        }
#else
        /* HSE used as PLL clock source : PLLCLK = HSE/PREDIV1 * PLLMUL */
        pllclk = (uint32_t)((HSE_VALUE  * pllmul) / prediv);
 80016e6:	697b      	ldr	r3, [r7, #20]
 80016e8:	4a0f      	ldr	r2, [pc, #60]	; (8001728 <HAL_RCC_GetSysClockFreq+0xbc>)
 80016ea:	fb02 f203 	mul.w	r2, r2, r3
 80016ee:	69bb      	ldr	r3, [r7, #24]
 80016f0:	fbb2 f3f3 	udiv	r3, r2, r3
 80016f4:	627b      	str	r3, [r7, #36]	; 0x24
 80016f6:	e004      	b.n	8001702 <HAL_RCC_GetSysClockFreq+0x96>
#endif /*RCC_CFGR2_PREDIV1SRC*/
      }
      else
      {
        /* HSI used as PLL clock source : PLLCLK = HSI/2 * PLLMUL */
        pllclk = (uint32_t)((HSI_VALUE >> 1) * pllmul);
 80016f8:	697b      	ldr	r3, [r7, #20]
 80016fa:	4a0c      	ldr	r2, [pc, #48]	; (800172c <HAL_RCC_GetSysClockFreq+0xc0>)
 80016fc:	fb02 f303 	mul.w	r3, r2, r3
 8001700:	627b      	str	r3, [r7, #36]	; 0x24
      }
      sysclockfreq = pllclk;
 8001702:	6a7b      	ldr	r3, [r7, #36]	; 0x24
 8001704:	623b      	str	r3, [r7, #32]
      break;
 8001706:	e002      	b.n	800170e <HAL_RCC_GetSysClockFreq+0xa2>
    }
    case RCC_SYSCLKSOURCE_STATUS_HSI:  /* HSI used as system clock source */
    default: /* HSI used as system clock */
    {
      sysclockfreq = HSI_VALUE;
 8001708:	4b07      	ldr	r3, [pc, #28]	; (8001728 <HAL_RCC_GetSysClockFreq+0xbc>)
 800170a:	623b      	str	r3, [r7, #32]
      break;
 800170c:	bf00      	nop
    }
  }
  return sysclockfreq;
 800170e:	6a3b      	ldr	r3, [r7, #32]
}
 8001710:	4618      	mov	r0, r3
 8001712:	3728      	adds	r7, #40	; 0x28
 8001714:	46bd      	mov	sp, r7
 8001716:	bc90      	pop	{r4, r7}
 8001718:	4770      	bx	lr
 800171a:	bf00      	nop
 800171c:	08003e34 	.word	0x08003e34
 8001720:	08003e44 	.word	0x08003e44
 8001724:	40021000 	.word	0x40021000
 8001728:	007a1200 	.word	0x007a1200
 800172c:	003d0900 	.word	0x003d0900

08001730 <HAL_RCC_GetHCLKFreq>:
  * @note   The SystemCoreClock CMSIS variable is used to store System Clock Frequency
  *         and updated within this function
  * @retval HCLK frequency
  */
uint32_t HAL_RCC_GetHCLKFreq(void)
{
 8001730:	b480      	push	{r7}
 8001732:	af00      	add	r7, sp, #0
  return SystemCoreClock;
 8001734:	4b02      	ldr	r3, [pc, #8]	; (8001740 <HAL_RCC_GetHCLKFreq+0x10>)
 8001736:	681b      	ldr	r3, [r3, #0]
}
 8001738:	4618      	mov	r0, r3
 800173a:	46bd      	mov	sp, r7
 800173c:	bc80      	pop	{r7}
 800173e:	4770      	bx	lr
 8001740:	20000000 	.word	0x20000000

08001744 <HAL_RCC_GetPCLK1Freq>:
  * @note   Each time PCLK1 changes, this function must be called to update the
  *         right PCLK1 value. Otherwise, any configuration based on this function will be incorrect.
  * @retval PCLK1 frequency
  */
uint32_t HAL_RCC_GetPCLK1Freq(void)
{
 8001744:	b580      	push	{r7, lr}
 8001746:	af00      	add	r7, sp, #0
  /* Get HCLK source and Compute PCLK1 frequency ---------------------------*/
  return (HAL_RCC_GetHCLKFreq() >> APBPrescTable[(RCC->CFGR & RCC_CFGR_PPRE1) >> RCC_CFGR_PPRE1_Pos]);
 8001748:	f7ff fff2 	bl	8001730 <HAL_RCC_GetHCLKFreq>
 800174c:	4601      	mov	r1, r0
 800174e:	4b05      	ldr	r3, [pc, #20]	; (8001764 <HAL_RCC_GetPCLK1Freq+0x20>)
 8001750:	685b      	ldr	r3, [r3, #4]
 8001752:	0a1b      	lsrs	r3, r3, #8
 8001754:	f003 0307 	and.w	r3, r3, #7
 8001758:	4a03      	ldr	r2, [pc, #12]	; (8001768 <HAL_RCC_GetPCLK1Freq+0x24>)
 800175a:	5cd3      	ldrb	r3, [r2, r3]
 800175c:	fa21 f303 	lsr.w	r3, r1, r3
}
 8001760:	4618      	mov	r0, r3
 8001762:	bd80      	pop	{r7, pc}
 8001764:	40021000 	.word	0x40021000
 8001768:	08003e6c 	.word	0x08003e6c

0800176c <HAL_RCC_GetPCLK2Freq>:
  * @note   Each time PCLK2 changes, this function must be called to update the
  *         right PCLK2 value. Otherwise, any configuration based on this function will be incorrect.
  * @retval PCLK2 frequency
  */
uint32_t HAL_RCC_GetPCLK2Freq(void)
{
 800176c:	b580      	push	{r7, lr}
 800176e:	af00      	add	r7, sp, #0
  /* Get HCLK source and Compute PCLK2 frequency ---------------------------*/
  return (HAL_RCC_GetHCLKFreq() >> APBPrescTable[(RCC->CFGR & RCC_CFGR_PPRE2) >> RCC_CFGR_PPRE2_Pos]);
 8001770:	f7ff ffde 	bl	8001730 <HAL_RCC_GetHCLKFreq>
 8001774:	4601      	mov	r1, r0
 8001776:	4b05      	ldr	r3, [pc, #20]	; (800178c <HAL_RCC_GetPCLK2Freq+0x20>)
 8001778:	685b      	ldr	r3, [r3, #4]
 800177a:	0adb      	lsrs	r3, r3, #11
 800177c:	f003 0307 	and.w	r3, r3, #7
 8001780:	4a03      	ldr	r2, [pc, #12]	; (8001790 <HAL_RCC_GetPCLK2Freq+0x24>)
 8001782:	5cd3      	ldrb	r3, [r2, r3]
 8001784:	fa21 f303 	lsr.w	r3, r1, r3
}
 8001788:	4618      	mov	r0, r3
 800178a:	bd80      	pop	{r7, pc}
 800178c:	40021000 	.word	0x40021000
 8001790:	08003e6c 	.word	0x08003e6c

08001794 <RCC_Delay>:
  * @brief  This function provides delay (in milliseconds) based on CPU cycles method.
  * @param  mdelay: specifies the delay time length, in milliseconds.
  * @retval None
  */
static void RCC_Delay(uint32_t mdelay)
{
 8001794:	b480      	push	{r7}
 8001796:	b085      	sub	sp, #20
 8001798:	af00      	add	r7, sp, #0
 800179a:	6078      	str	r0, [r7, #4]
  __IO uint32_t Delay = mdelay * (SystemCoreClock / 8U / 1000U);
 800179c:	4b0a      	ldr	r3, [pc, #40]	; (80017c8 <RCC_Delay+0x34>)
 800179e:	681b      	ldr	r3, [r3, #0]
 80017a0:	4a0a      	ldr	r2, [pc, #40]	; (80017cc <RCC_Delay+0x38>)
 80017a2:	fba2 2303 	umull	r2, r3, r2, r3
 80017a6:	0a5b      	lsrs	r3, r3, #9
 80017a8:	687a      	ldr	r2, [r7, #4]
 80017aa:	fb02 f303 	mul.w	r3, r2, r3
 80017ae:	60fb      	str	r3, [r7, #12]
  do
  {
    __NOP();
 80017b0:	bf00      	nop
  }
  while (Delay --);
 80017b2:	68fb      	ldr	r3, [r7, #12]
 80017b4:	1e5a      	subs	r2, r3, #1
 80017b6:	60fa      	str	r2, [r7, #12]
 80017b8:	2b00      	cmp	r3, #0
 80017ba:	d1f9      	bne.n	80017b0 <RCC_Delay+0x1c>
}
 80017bc:	bf00      	nop
 80017be:	3714      	adds	r7, #20
 80017c0:	46bd      	mov	sp, r7
 80017c2:	bc80      	pop	{r7}
 80017c4:	4770      	bx	lr
 80017c6:	bf00      	nop
 80017c8:	20000000 	.word	0x20000000
 80017cc:	10624dd3 	.word	0x10624dd3

080017d0 <HAL_RCCEx_PeriphCLKConfig>:
  *         manually disable it.
  *
  * @retval HAL status
  */
HAL_StatusTypeDef HAL_RCCEx_PeriphCLKConfig(RCC_PeriphCLKInitTypeDef  *PeriphClkInit)
{
 80017d0:	b580      	push	{r7, lr}
 80017d2:	b086      	sub	sp, #24
 80017d4:	af00      	add	r7, sp, #0
 80017d6:	6078      	str	r0, [r7, #4]
  uint32_t tickstart = 0U, temp_reg = 0U;
 80017d8:	2300      	movs	r3, #0
 80017da:	613b      	str	r3, [r7, #16]
 80017dc:	2300      	movs	r3, #0
 80017de:	60fb      	str	r3, [r7, #12]

  /* Check the parameters */
  assert_param(IS_RCC_PERIPHCLOCK(PeriphClkInit->PeriphClockSelection));

  /*------------------------------- RTC/LCD Configuration ------------------------*/
  if ((((PeriphClkInit->PeriphClockSelection) & RCC_PERIPHCLK_RTC) == RCC_PERIPHCLK_RTC))
 80017e0:	687b      	ldr	r3, [r7, #4]
 80017e2:	681b      	ldr	r3, [r3, #0]
 80017e4:	f003 0301 	and.w	r3, r3, #1
 80017e8:	2b00      	cmp	r3, #0
 80017ea:	d07d      	beq.n	80018e8 <HAL_RCCEx_PeriphCLKConfig+0x118>
  {
    /* check for RTC Parameters used to output RTCCLK */
    assert_param(IS_RCC_RTCCLKSOURCE(PeriphClkInit->RTCClockSelection));

    FlagStatus       pwrclkchanged = RESET;
 80017ec:	2300      	movs	r3, #0
 80017ee:	75fb      	strb	r3, [r7, #23]

    /* As soon as function is called to change RTC clock source, activation of the
       power domain is done. */
    /* Requires to enable write access to Backup Domain of necessary */
    if (__HAL_RCC_PWR_IS_CLK_DISABLED())
 80017f0:	4b4f      	ldr	r3, [pc, #316]	; (8001930 <HAL_RCCEx_PeriphCLKConfig+0x160>)
 80017f2:	69db      	ldr	r3, [r3, #28]
 80017f4:	f003 5380 	and.w	r3, r3, #268435456	; 0x10000000
 80017f8:	2b00      	cmp	r3, #0
 80017fa:	d10d      	bne.n	8001818 <HAL_RCCEx_PeriphCLKConfig+0x48>
    {
      __HAL_RCC_PWR_CLK_ENABLE();
 80017fc:	4b4c      	ldr	r3, [pc, #304]	; (8001930 <HAL_RCCEx_PeriphCLKConfig+0x160>)
 80017fe:	69db      	ldr	r3, [r3, #28]
 8001800:	4a4b      	ldr	r2, [pc, #300]	; (8001930 <HAL_RCCEx_PeriphCLKConfig+0x160>)
 8001802:	f043 5380 	orr.w	r3, r3, #268435456	; 0x10000000
 8001806:	61d3      	str	r3, [r2, #28]
 8001808:	4b49      	ldr	r3, [pc, #292]	; (8001930 <HAL_RCCEx_PeriphCLKConfig+0x160>)
 800180a:	69db      	ldr	r3, [r3, #28]
 800180c:	f003 5380 	and.w	r3, r3, #268435456	; 0x10000000
 8001810:	60bb      	str	r3, [r7, #8]
 8001812:	68bb      	ldr	r3, [r7, #8]
      pwrclkchanged = SET;
 8001814:	2301      	movs	r3, #1
 8001816:	75fb      	strb	r3, [r7, #23]
    }

    if (HAL_IS_BIT_CLR(PWR->CR, PWR_CR_DBP))
 8001818:	4b46      	ldr	r3, [pc, #280]	; (8001934 <HAL_RCCEx_PeriphCLKConfig+0x164>)
 800181a:	681b      	ldr	r3, [r3, #0]
 800181c:	f403 7380 	and.w	r3, r3, #256	; 0x100
 8001820:	2b00      	cmp	r3, #0
 8001822:	d118      	bne.n	8001856 <HAL_RCCEx_PeriphCLKConfig+0x86>
    {
      /* Enable write access to Backup domain */
      SET_BIT(PWR->CR, PWR_CR_DBP);
 8001824:	4b43      	ldr	r3, [pc, #268]	; (8001934 <HAL_RCCEx_PeriphCLKConfig+0x164>)
 8001826:	681b      	ldr	r3, [r3, #0]
 8001828:	4a42      	ldr	r2, [pc, #264]	; (8001934 <HAL_RCCEx_PeriphCLKConfig+0x164>)
 800182a:	f443 7380 	orr.w	r3, r3, #256	; 0x100
 800182e:	6013      	str	r3, [r2, #0]

      /* Wait for Backup domain Write protection disable */
      tickstart = HAL_GetTick();
 8001830:	f7ff f90c 	bl	8000a4c <HAL_GetTick>
 8001834:	6138      	str	r0, [r7, #16]

      while (HAL_IS_BIT_CLR(PWR->CR, PWR_CR_DBP))
 8001836:	e008      	b.n	800184a <HAL_RCCEx_PeriphCLKConfig+0x7a>
      {
        if ((HAL_GetTick() - tickstart) > RCC_DBP_TIMEOUT_VALUE)
 8001838:	f7ff f908 	bl	8000a4c <HAL_GetTick>
 800183c:	4602      	mov	r2, r0
 800183e:	693b      	ldr	r3, [r7, #16]
 8001840:	1ad3      	subs	r3, r2, r3
 8001842:	2b64      	cmp	r3, #100	; 0x64
 8001844:	d901      	bls.n	800184a <HAL_RCCEx_PeriphCLKConfig+0x7a>
        {
          return HAL_TIMEOUT;
 8001846:	2303      	movs	r3, #3
 8001848:	e06d      	b.n	8001926 <HAL_RCCEx_PeriphCLKConfig+0x156>
      while (HAL_IS_BIT_CLR(PWR->CR, PWR_CR_DBP))
 800184a:	4b3a      	ldr	r3, [pc, #232]	; (8001934 <HAL_RCCEx_PeriphCLKConfig+0x164>)
 800184c:	681b      	ldr	r3, [r3, #0]
 800184e:	f403 7380 	and.w	r3, r3, #256	; 0x100
 8001852:	2b00      	cmp	r3, #0
 8001854:	d0f0      	beq.n	8001838 <HAL_RCCEx_PeriphCLKConfig+0x68>
        }
      }
    }

    /* Reset the Backup domain only if the RTC Clock source selection is modified from reset value */
    temp_reg = (RCC->BDCR & RCC_BDCR_RTCSEL);
 8001856:	4b36      	ldr	r3, [pc, #216]	; (8001930 <HAL_RCCEx_PeriphCLKConfig+0x160>)
 8001858:	6a1b      	ldr	r3, [r3, #32]
 800185a:	f403 7340 	and.w	r3, r3, #768	; 0x300
 800185e:	60fb      	str	r3, [r7, #12]
    if ((temp_reg != 0x00000000U) && (temp_reg != (PeriphClkInit->RTCClockSelection & RCC_BDCR_RTCSEL)))
 8001860:	68fb      	ldr	r3, [r7, #12]
 8001862:	2b00      	cmp	r3, #0
 8001864:	d02e      	beq.n	80018c4 <HAL_RCCEx_PeriphCLKConfig+0xf4>
 8001866:	687b      	ldr	r3, [r7, #4]
 8001868:	685b      	ldr	r3, [r3, #4]
 800186a:	f403 7340 	and.w	r3, r3, #768	; 0x300
 800186e:	68fa      	ldr	r2, [r7, #12]
 8001870:	429a      	cmp	r2, r3
 8001872:	d027      	beq.n	80018c4 <HAL_RCCEx_PeriphCLKConfig+0xf4>
    {
      /* Store the content of BDCR register before the reset of Backup Domain */
      temp_reg = (RCC->BDCR & ~(RCC_BDCR_RTCSEL));
 8001874:	4b2e      	ldr	r3, [pc, #184]	; (8001930 <HAL_RCCEx_PeriphCLKConfig+0x160>)
 8001876:	6a1b      	ldr	r3, [r3, #32]
 8001878:	f423 7340 	bic.w	r3, r3, #768	; 0x300
 800187c:	60fb      	str	r3, [r7, #12]
      /* RTC Clock selection can be changed only if the Backup Domain is reset */
      __HAL_RCC_BACKUPRESET_FORCE();
 800187e:	4b2e      	ldr	r3, [pc, #184]	; (8001938 <HAL_RCCEx_PeriphCLKConfig+0x168>)
 8001880:	2201      	movs	r2, #1
 8001882:	601a      	str	r2, [r3, #0]
      __HAL_RCC_BACKUPRESET_RELEASE();
 8001884:	4b2c      	ldr	r3, [pc, #176]	; (8001938 <HAL_RCCEx_PeriphCLKConfig+0x168>)
 8001886:	2200      	movs	r2, #0
 8001888:	601a      	str	r2, [r3, #0]
      /* Restore the Content of BDCR register */
      RCC->BDCR = temp_reg;
 800188a:	4a29      	ldr	r2, [pc, #164]	; (8001930 <HAL_RCCEx_PeriphCLKConfig+0x160>)
 800188c:	68fb      	ldr	r3, [r7, #12]
 800188e:	6213      	str	r3, [r2, #32]

      /* Wait for LSERDY if LSE was enabled */
      if (HAL_IS_BIT_SET(temp_reg, RCC_BDCR_LSEON))
 8001890:	68fb      	ldr	r3, [r7, #12]
 8001892:	f003 0301 	and.w	r3, r3, #1
 8001896:	2b00      	cmp	r3, #0
 8001898:	d014      	beq.n	80018c4 <HAL_RCCEx_PeriphCLKConfig+0xf4>
      {
        /* Get Start Tick */
        tickstart = HAL_GetTick();
 800189a:	f7ff f8d7 	bl	8000a4c <HAL_GetTick>
 800189e:	6138      	str	r0, [r7, #16]

        /* Wait till LSE is ready */
        while (__HAL_RCC_GET_FLAG(RCC_FLAG_LSERDY) == RESET)
 80018a0:	e00a      	b.n	80018b8 <HAL_RCCEx_PeriphCLKConfig+0xe8>
        {
          if ((HAL_GetTick() - tickstart) > RCC_LSE_TIMEOUT_VALUE)
 80018a2:	f7ff f8d3 	bl	8000a4c <HAL_GetTick>
 80018a6:	4602      	mov	r2, r0
 80018a8:	693b      	ldr	r3, [r7, #16]
 80018aa:	1ad3      	subs	r3, r2, r3
 80018ac:	f241 3288 	movw	r2, #5000	; 0x1388
 80018b0:	4293      	cmp	r3, r2
 80018b2:	d901      	bls.n	80018b8 <HAL_RCCEx_PeriphCLKConfig+0xe8>
          {
            return HAL_TIMEOUT;
 80018b4:	2303      	movs	r3, #3
 80018b6:	e036      	b.n	8001926 <HAL_RCCEx_PeriphCLKConfig+0x156>
        while (__HAL_RCC_GET_FLAG(RCC_FLAG_LSERDY) == RESET)
 80018b8:	4b1d      	ldr	r3, [pc, #116]	; (8001930 <HAL_RCCEx_PeriphCLKConfig+0x160>)
 80018ba:	6a1b      	ldr	r3, [r3, #32]
 80018bc:	f003 0302 	and.w	r3, r3, #2
 80018c0:	2b00      	cmp	r3, #0
 80018c2:	d0ee      	beq.n	80018a2 <HAL_RCCEx_PeriphCLKConfig+0xd2>
          }
        }
      }
    }
    __HAL_RCC_RTC_CONFIG(PeriphClkInit->RTCClockSelection);
 80018c4:	4b1a      	ldr	r3, [pc, #104]	; (8001930 <HAL_RCCEx_PeriphCLKConfig+0x160>)
 80018c6:	6a1b      	ldr	r3, [r3, #32]
 80018c8:	f423 7240 	bic.w	r2, r3, #768	; 0x300
 80018cc:	687b      	ldr	r3, [r7, #4]
 80018ce:	685b      	ldr	r3, [r3, #4]
 80018d0:	4917      	ldr	r1, [pc, #92]	; (8001930 <HAL_RCCEx_PeriphCLKConfig+0x160>)
 80018d2:	4313      	orrs	r3, r2
 80018d4:	620b      	str	r3, [r1, #32]

    /* Require to disable power clock if necessary */
    if (pwrclkchanged == SET)
 80018d6:	7dfb      	ldrb	r3, [r7, #23]
 80018d8:	2b01      	cmp	r3, #1
 80018da:	d105      	bne.n	80018e8 <HAL_RCCEx_PeriphCLKConfig+0x118>
    {
      __HAL_RCC_PWR_CLK_DISABLE();
 80018dc:	4b14      	ldr	r3, [pc, #80]	; (8001930 <HAL_RCCEx_PeriphCLKConfig+0x160>)
 80018de:	69db      	ldr	r3, [r3, #28]
 80018e0:	4a13      	ldr	r2, [pc, #76]	; (8001930 <HAL_RCCEx_PeriphCLKConfig+0x160>)
 80018e2:	f023 5380 	bic.w	r3, r3, #268435456	; 0x10000000
 80018e6:	61d3      	str	r3, [r2, #28]
    }
  }

  /*------------------------------ ADC clock Configuration ------------------*/
  if (((PeriphClkInit->PeriphClockSelection) & RCC_PERIPHCLK_ADC) == RCC_PERIPHCLK_ADC)
 80018e8:	687b      	ldr	r3, [r7, #4]
 80018ea:	681b      	ldr	r3, [r3, #0]
 80018ec:	f003 0302 	and.w	r3, r3, #2
 80018f0:	2b00      	cmp	r3, #0
 80018f2:	d008      	beq.n	8001906 <HAL_RCCEx_PeriphCLKConfig+0x136>
  {
    /* Check the parameters */
    assert_param(IS_RCC_ADCPLLCLK_DIV(PeriphClkInit->AdcClockSelection));

    /* Configure the ADC clock source */
    __HAL_RCC_ADC_CONFIG(PeriphClkInit->AdcClockSelection);
 80018f4:	4b0e      	ldr	r3, [pc, #56]	; (8001930 <HAL_RCCEx_PeriphCLKConfig+0x160>)
 80018f6:	685b      	ldr	r3, [r3, #4]
 80018f8:	f423 4240 	bic.w	r2, r3, #49152	; 0xc000
 80018fc:	687b      	ldr	r3, [r7, #4]
 80018fe:	689b      	ldr	r3, [r3, #8]
 8001900:	490b      	ldr	r1, [pc, #44]	; (8001930 <HAL_RCCEx_PeriphCLKConfig+0x160>)
 8001902:	4313      	orrs	r3, r2
 8001904:	604b      	str	r3, [r1, #4]

#if defined(STM32F102x6) || defined(STM32F102xB) || defined(STM32F103x6)\
 || defined(STM32F103xB) || defined(STM32F103xE) || defined(STM32F103xG)\
 || defined(STM32F105xC) || defined(STM32F107xC)
  /*------------------------------ USB clock Configuration ------------------*/
  if (((PeriphClkInit->PeriphClockSelection) & RCC_PERIPHCLK_USB) == RCC_PERIPHCLK_USB)
 8001906:	687b      	ldr	r3, [r7, #4]
 8001908:	681b      	ldr	r3, [r3, #0]
 800190a:	f003 0310 	and.w	r3, r3, #16
 800190e:	2b00      	cmp	r3, #0
 8001910:	d008      	beq.n	8001924 <HAL_RCCEx_PeriphCLKConfig+0x154>
  {
    /* Check the parameters */
    assert_param(IS_RCC_USBPLLCLK_DIV(PeriphClkInit->UsbClockSelection));

    /* Configure the USB clock source */
    __HAL_RCC_USB_CONFIG(PeriphClkInit->UsbClockSelection);
 8001912:	4b07      	ldr	r3, [pc, #28]	; (8001930 <HAL_RCCEx_PeriphCLKConfig+0x160>)
 8001914:	685b      	ldr	r3, [r3, #4]
 8001916:	f423 0280 	bic.w	r2, r3, #4194304	; 0x400000
 800191a:	687b      	ldr	r3, [r7, #4]
 800191c:	68db      	ldr	r3, [r3, #12]
 800191e:	4904      	ldr	r1, [pc, #16]	; (8001930 <HAL_RCCEx_PeriphCLKConfig+0x160>)
 8001920:	4313      	orrs	r3, r2
 8001922:	604b      	str	r3, [r1, #4]
  }
#endif /* STM32F102x6 || STM32F102xB || STM32F103x6 || STM32F103xB || STM32F103xE || STM32F103xG || STM32F105xC || STM32F107xC */

  return HAL_OK;
 8001924:	2300      	movs	r3, #0
}
 8001926:	4618      	mov	r0, r3
 8001928:	3718      	adds	r7, #24
 800192a:	46bd      	mov	sp, r7
 800192c:	bd80      	pop	{r7, pc}
 800192e:	bf00      	nop
 8001930:	40021000 	.word	0x40021000
 8001934:	40007000 	.word	0x40007000
 8001938:	42420440 	.word	0x42420440

0800193c <HAL_RCCEx_GetPeriphCLKFreq>:
  *            @arg @ref RCC_PERIPHCLK_USB  USB peripheral clock
  @endif
  * @retval Frequency in Hz (0: means that no available frequency for the peripheral)
  */
uint32_t HAL_RCCEx_GetPeriphCLKFreq(uint32_t PeriphClk)
{
 800193c:	b590      	push	{r4, r7, lr}
 800193e:	b08d      	sub	sp, #52	; 0x34
 8001940:	af00      	add	r7, sp, #0
 8001942:	6078      	str	r0, [r7, #4]
  uint32_t prediv1 = 0U, pllclk = 0U, pllmul = 0U;
  uint32_t pll2mul = 0U, pll3mul = 0U, prediv2 = 0U;
#endif /* STM32F105xC || STM32F107xC */
#if defined(STM32F102x6) || defined(STM32F102xB) || defined(STM32F103x6) || \
    defined(STM32F103xB) || defined(STM32F103xE) || defined(STM32F103xG)
  const uint8_t aPLLMULFactorTable[16] = {2, 3, 4, 5, 6, 7, 8, 9, 10, 11, 12, 13, 14, 15, 16, 16};
 8001944:	4b55      	ldr	r3, [pc, #340]	; (8001a9c <HAL_RCCEx_GetPeriphCLKFreq+0x160>)
 8001946:	f107 040c 	add.w	r4, r7, #12
 800194a:	cb0f      	ldmia	r3, {r0, r1, r2, r3}
 800194c:	e884 000f 	stmia.w	r4, {r0, r1, r2, r3}
  const uint8_t aPredivFactorTable[2] = {1, 2};
 8001950:	4b53      	ldr	r3, [pc, #332]	; (8001aa0 <HAL_RCCEx_GetPeriphCLKFreq+0x164>)
 8001952:	881b      	ldrh	r3, [r3, #0]
 8001954:	813b      	strh	r3, [r7, #8]

  uint32_t prediv1 = 0U, pllclk = 0U, pllmul = 0U;
 8001956:	2300      	movs	r3, #0
 8001958:	627b      	str	r3, [r7, #36]	; 0x24
 800195a:	2300      	movs	r3, #0
 800195c:	62fb      	str	r3, [r7, #44]	; 0x2c
 800195e:	2300      	movs	r3, #0
 8001960:	623b      	str	r3, [r7, #32]
#endif /* STM32F102x6 || STM32F102xB || STM32F103x6 || STM32F103xB || STM32F103xE || STM32F103xG */
  uint32_t temp_reg = 0U, frequency = 0U;
 8001962:	2300      	movs	r3, #0
 8001964:	61fb      	str	r3, [r7, #28]
 8001966:	2300      	movs	r3, #0
 8001968:	62bb      	str	r3, [r7, #40]	; 0x28

  /* Check the parameters */
  assert_param(IS_RCC_PERIPHCLOCK(PeriphClk));

  switch (PeriphClk)
 800196a:	687b      	ldr	r3, [r7, #4]
 800196c:	2b02      	cmp	r3, #2
 800196e:	d07f      	beq.n	8001a70 <HAL_RCCEx_GetPeriphCLKFreq+0x134>
 8001970:	2b10      	cmp	r3, #16
 8001972:	d002      	beq.n	800197a <HAL_RCCEx_GetPeriphCLKFreq+0x3e>
 8001974:	2b01      	cmp	r3, #1
 8001976:	d048      	beq.n	8001a0a <HAL_RCCEx_GetPeriphCLKFreq+0xce>
      frequency = HAL_RCC_GetPCLK2Freq() / (((__HAL_RCC_GET_ADC_SOURCE() >> RCC_CFGR_ADCPRE_Pos) + 1) * 2);
      break;
    }
    default:
    {
      break;
 8001978:	e08b      	b.n	8001a92 <HAL_RCCEx_GetPeriphCLKFreq+0x156>
      temp_reg = RCC->CFGR;
 800197a:	4b4a      	ldr	r3, [pc, #296]	; (8001aa4 <HAL_RCCEx_GetPeriphCLKFreq+0x168>)
 800197c:	685b      	ldr	r3, [r3, #4]
 800197e:	61fb      	str	r3, [r7, #28]
      if (HAL_IS_BIT_SET(RCC->CR, RCC_CR_PLLON))
 8001980:	4b48      	ldr	r3, [pc, #288]	; (8001aa4 <HAL_RCCEx_GetPeriphCLKFreq+0x168>)
 8001982:	681b      	ldr	r3, [r3, #0]
 8001984:	f003 7380 	and.w	r3, r3, #16777216	; 0x1000000
 8001988:	2b00      	cmp	r3, #0
 800198a:	d07f      	beq.n	8001a8c <HAL_RCCEx_GetPeriphCLKFreq+0x150>
        pllmul = aPLLMULFactorTable[(uint32_t)(temp_reg & RCC_CFGR_PLLMULL) >> RCC_CFGR_PLLMULL_Pos];
 800198c:	69fb      	ldr	r3, [r7, #28]
 800198e:	0c9b      	lsrs	r3, r3, #18
 8001990:	f003 030f 	and.w	r3, r3, #15
 8001994:	f107 0230 	add.w	r2, r7, #48	; 0x30
 8001998:	4413      	add	r3, r2
 800199a:	f813 3c24 	ldrb.w	r3, [r3, #-36]
 800199e:	623b      	str	r3, [r7, #32]
        if ((temp_reg & RCC_CFGR_PLLSRC) != RCC_PLLSOURCE_HSI_DIV2)
 80019a0:	69fb      	ldr	r3, [r7, #28]
 80019a2:	f403 3380 	and.w	r3, r3, #65536	; 0x10000
 80019a6:	2b00      	cmp	r3, #0
 80019a8:	d018      	beq.n	80019dc <HAL_RCCEx_GetPeriphCLKFreq+0xa0>
          prediv1 = aPredivFactorTable[(uint32_t)(RCC->CFGR & RCC_CFGR_PLLXTPRE) >> RCC_CFGR_PLLXTPRE_Pos];
 80019aa:	4b3e      	ldr	r3, [pc, #248]	; (8001aa4 <HAL_RCCEx_GetPeriphCLKFreq+0x168>)
 80019ac:	685b      	ldr	r3, [r3, #4]
 80019ae:	0c5b      	lsrs	r3, r3, #17
 80019b0:	f003 0301 	and.w	r3, r3, #1
 80019b4:	f107 0230 	add.w	r2, r7, #48	; 0x30
 80019b8:	4413      	add	r3, r2
 80019ba:	f813 3c28 	ldrb.w	r3, [r3, #-40]
 80019be:	627b      	str	r3, [r7, #36]	; 0x24
          if ((temp_reg & RCC_CFGR_PLLSRC) != RCC_PLLSOURCE_HSI_DIV2)
 80019c0:	69fb      	ldr	r3, [r7, #28]
 80019c2:	f403 3380 	and.w	r3, r3, #65536	; 0x10000
 80019c6:	2b00      	cmp	r3, #0
 80019c8:	d00d      	beq.n	80019e6 <HAL_RCCEx_GetPeriphCLKFreq+0xaa>
            pllclk = (uint32_t)((HSE_VALUE / prediv1) * pllmul);
 80019ca:	4a37      	ldr	r2, [pc, #220]	; (8001aa8 <HAL_RCCEx_GetPeriphCLKFreq+0x16c>)
 80019cc:	6a7b      	ldr	r3, [r7, #36]	; 0x24
 80019ce:	fbb2 f2f3 	udiv	r2, r2, r3
 80019d2:	6a3b      	ldr	r3, [r7, #32]
 80019d4:	fb02 f303 	mul.w	r3, r2, r3
 80019d8:	62fb      	str	r3, [r7, #44]	; 0x2c
 80019da:	e004      	b.n	80019e6 <HAL_RCCEx_GetPeriphCLKFreq+0xaa>
          pllclk = (uint32_t)((HSI_VALUE >> 1) * pllmul);
 80019dc:	6a3b      	ldr	r3, [r7, #32]
 80019de:	4a33      	ldr	r2, [pc, #204]	; (8001aac <HAL_RCCEx_GetPeriphCLKFreq+0x170>)
 80019e0:	fb02 f303 	mul.w	r3, r2, r3
 80019e4:	62fb      	str	r3, [r7, #44]	; 0x2c
        if (__HAL_RCC_GET_USB_SOURCE() == RCC_USBCLKSOURCE_PLL)
 80019e6:	4b2f      	ldr	r3, [pc, #188]	; (8001aa4 <HAL_RCCEx_GetPeriphCLKFreq+0x168>)
 80019e8:	685b      	ldr	r3, [r3, #4]
 80019ea:	f403 0380 	and.w	r3, r3, #4194304	; 0x400000
 80019ee:	f5b3 0f80 	cmp.w	r3, #4194304	; 0x400000
 80019f2:	d102      	bne.n	80019fa <HAL_RCCEx_GetPeriphCLKFreq+0xbe>
          frequency = pllclk;
 80019f4:	6afb      	ldr	r3, [r7, #44]	; 0x2c
 80019f6:	62bb      	str	r3, [r7, #40]	; 0x28
      break;
 80019f8:	e048      	b.n	8001a8c <HAL_RCCEx_GetPeriphCLKFreq+0x150>
          frequency = (pllclk * 2) / 3;
 80019fa:	6afb      	ldr	r3, [r7, #44]	; 0x2c
 80019fc:	005b      	lsls	r3, r3, #1
 80019fe:	4a2c      	ldr	r2, [pc, #176]	; (8001ab0 <HAL_RCCEx_GetPeriphCLKFreq+0x174>)
 8001a00:	fba2 2303 	umull	r2, r3, r2, r3
 8001a04:	085b      	lsrs	r3, r3, #1
 8001a06:	62bb      	str	r3, [r7, #40]	; 0x28
      break;
 8001a08:	e040      	b.n	8001a8c <HAL_RCCEx_GetPeriphCLKFreq+0x150>
      temp_reg = RCC->BDCR;
 8001a0a:	4b26      	ldr	r3, [pc, #152]	; (8001aa4 <HAL_RCCEx_GetPeriphCLKFreq+0x168>)
 8001a0c:	6a1b      	ldr	r3, [r3, #32]
 8001a0e:	61fb      	str	r3, [r7, #28]
      if (((temp_reg & RCC_BDCR_RTCSEL) == RCC_RTCCLKSOURCE_LSE) && (HAL_IS_BIT_SET(temp_reg, RCC_BDCR_LSERDY)))
 8001a10:	69fb      	ldr	r3, [r7, #28]
 8001a12:	f403 7340 	and.w	r3, r3, #768	; 0x300
 8001a16:	f5b3 7f80 	cmp.w	r3, #256	; 0x100
 8001a1a:	d108      	bne.n	8001a2e <HAL_RCCEx_GetPeriphCLKFreq+0xf2>
 8001a1c:	69fb      	ldr	r3, [r7, #28]
 8001a1e:	f003 0302 	and.w	r3, r3, #2
 8001a22:	2b00      	cmp	r3, #0
 8001a24:	d003      	beq.n	8001a2e <HAL_RCCEx_GetPeriphCLKFreq+0xf2>
        frequency = LSE_VALUE;
 8001a26:	f44f 4300 	mov.w	r3, #32768	; 0x8000
 8001a2a:	62bb      	str	r3, [r7, #40]	; 0x28
 8001a2c:	e01f      	b.n	8001a6e <HAL_RCCEx_GetPeriphCLKFreq+0x132>
      else if (((temp_reg & RCC_BDCR_RTCSEL) == RCC_RTCCLKSOURCE_LSI) && (HAL_IS_BIT_SET(RCC->CSR, RCC_CSR_LSIRDY)))
 8001a2e:	69fb      	ldr	r3, [r7, #28]
 8001a30:	f403 7340 	and.w	r3, r3, #768	; 0x300
 8001a34:	f5b3 7f00 	cmp.w	r3, #512	; 0x200
 8001a38:	d109      	bne.n	8001a4e <HAL_RCCEx_GetPeriphCLKFreq+0x112>
 8001a3a:	4b1a      	ldr	r3, [pc, #104]	; (8001aa4 <HAL_RCCEx_GetPeriphCLKFreq+0x168>)
 8001a3c:	6a5b      	ldr	r3, [r3, #36]	; 0x24
 8001a3e:	f003 0302 	and.w	r3, r3, #2
 8001a42:	2b00      	cmp	r3, #0
 8001a44:	d003      	beq.n	8001a4e <HAL_RCCEx_GetPeriphCLKFreq+0x112>
        frequency = LSI_VALUE;
 8001a46:	f649 4340 	movw	r3, #40000	; 0x9c40
 8001a4a:	62bb      	str	r3, [r7, #40]	; 0x28
 8001a4c:	e00f      	b.n	8001a6e <HAL_RCCEx_GetPeriphCLKFreq+0x132>
      else if (((temp_reg & RCC_BDCR_RTCSEL) == RCC_RTCCLKSOURCE_HSE_DIV128) && (HAL_IS_BIT_SET(RCC->CR, RCC_CR_HSERDY)))
 8001a4e:	69fb      	ldr	r3, [r7, #28]
 8001a50:	f403 7340 	and.w	r3, r3, #768	; 0x300
 8001a54:	f5b3 7f40 	cmp.w	r3, #768	; 0x300
 8001a58:	d11a      	bne.n	8001a90 <HAL_RCCEx_GetPeriphCLKFreq+0x154>
 8001a5a:	4b12      	ldr	r3, [pc, #72]	; (8001aa4 <HAL_RCCEx_GetPeriphCLKFreq+0x168>)
 8001a5c:	681b      	ldr	r3, [r3, #0]
 8001a5e:	f403 3300 	and.w	r3, r3, #131072	; 0x20000
 8001a62:	2b00      	cmp	r3, #0
 8001a64:	d014      	beq.n	8001a90 <HAL_RCCEx_GetPeriphCLKFreq+0x154>
        frequency = HSE_VALUE / 128U;
 8001a66:	f24f 4324 	movw	r3, #62500	; 0xf424
 8001a6a:	62bb      	str	r3, [r7, #40]	; 0x28
      break;
 8001a6c:	e010      	b.n	8001a90 <HAL_RCCEx_GetPeriphCLKFreq+0x154>
 8001a6e:	e00f      	b.n	8001a90 <HAL_RCCEx_GetPeriphCLKFreq+0x154>
      frequency = HAL_RCC_GetPCLK2Freq() / (((__HAL_RCC_GET_ADC_SOURCE() >> RCC_CFGR_ADCPRE_Pos) + 1) * 2);
 8001a70:	f7ff fe7c 	bl	800176c <HAL_RCC_GetPCLK2Freq>
 8001a74:	4602      	mov	r2, r0
 8001a76:	4b0b      	ldr	r3, [pc, #44]	; (8001aa4 <HAL_RCCEx_GetPeriphCLKFreq+0x168>)
 8001a78:	685b      	ldr	r3, [r3, #4]
 8001a7a:	0b9b      	lsrs	r3, r3, #14
 8001a7c:	f003 0303 	and.w	r3, r3, #3
 8001a80:	3301      	adds	r3, #1
 8001a82:	005b      	lsls	r3, r3, #1
 8001a84:	fbb2 f3f3 	udiv	r3, r2, r3
 8001a88:	62bb      	str	r3, [r7, #40]	; 0x28
      break;
 8001a8a:	e002      	b.n	8001a92 <HAL_RCCEx_GetPeriphCLKFreq+0x156>
      break;
 8001a8c:	bf00      	nop
 8001a8e:	e000      	b.n	8001a92 <HAL_RCCEx_GetPeriphCLKFreq+0x156>
      break;
 8001a90:	bf00      	nop
    }
  }
  return (frequency);
 8001a92:	6abb      	ldr	r3, [r7, #40]	; 0x28
}
 8001a94:	4618      	mov	r0, r3
 8001a96:	3734      	adds	r7, #52	; 0x34
 8001a98:	46bd      	mov	sp, r7
 8001a9a:	bd90      	pop	{r4, r7, pc}
 8001a9c:	08003e48 	.word	0x08003e48
 8001aa0:	08003e58 	.word	0x08003e58
 8001aa4:	40021000 	.word	0x40021000
 8001aa8:	007a1200 	.word	0x007a1200
 8001aac:	003d0900 	.word	0x003d0900
 8001ab0:	aaaaaaab 	.word	0xaaaaaaab

08001ab4 <HAL_RTC_Init>:
  * @param  hrtc   pointer to a RTC_HandleTypeDef structure that contains
  *                the configuration information for RTC.
  * @retval HAL status
  */
HAL_StatusTypeDef HAL_RTC_Init(RTC_HandleTypeDef *hrtc)
{
 8001ab4:	b580      	push	{r7, lr}
 8001ab6:	b084      	sub	sp, #16
 8001ab8:	af00      	add	r7, sp, #0
 8001aba:	6078      	str	r0, [r7, #4]
  uint32_t prescaler = 0U;
 8001abc:	2300      	movs	r3, #0
 8001abe:	60fb      	str	r3, [r7, #12]
  /* Check input parameters */
  if (hrtc == NULL)
 8001ac0:	687b      	ldr	r3, [r7, #4]
 8001ac2:	2b00      	cmp	r3, #0
 8001ac4:	d101      	bne.n	8001aca <HAL_RTC_Init+0x16>
  {
    return HAL_ERROR;
 8001ac6:	2301      	movs	r3, #1
 8001ac8:	e084      	b.n	8001bd4 <HAL_RTC_Init+0x120>
    {
      hrtc->MspDeInitCallback = HAL_RTC_MspDeInit;
    }
  }
#else
  if (hrtc->State == HAL_RTC_STATE_RESET)
 8001aca:	687b      	ldr	r3, [r7, #4]
 8001acc:	7c5b      	ldrb	r3, [r3, #17]
 8001ace:	b2db      	uxtb	r3, r3
 8001ad0:	2b00      	cmp	r3, #0
 8001ad2:	d105      	bne.n	8001ae0 <HAL_RTC_Init+0x2c>
  {
    /* Allocate lock resource and initialize it */
    hrtc->Lock = HAL_UNLOCKED;
 8001ad4:	687b      	ldr	r3, [r7, #4]
 8001ad6:	2200      	movs	r2, #0
 8001ad8:	741a      	strb	r2, [r3, #16]

    /* Initialize RTC MSP */
    HAL_RTC_MspInit(hrtc);
 8001ada:	6878      	ldr	r0, [r7, #4]
 8001adc:	f7fe fd8a 	bl	80005f4 <HAL_RTC_MspInit>
  }
#endif /* (USE_HAL_RTC_REGISTER_CALLBACKS) */

  /* Set RTC state */
  hrtc->State = HAL_RTC_STATE_BUSY;
 8001ae0:	687b      	ldr	r3, [r7, #4]
 8001ae2:	2202      	movs	r2, #2
 8001ae4:	745a      	strb	r2, [r3, #17]

  /* Waiting for synchro */
  if (HAL_RTC_WaitForSynchro(hrtc) != HAL_OK)
 8001ae6:	6878      	ldr	r0, [r7, #4]
 8001ae8:	f000 f9c8 	bl	8001e7c <HAL_RTC_WaitForSynchro>
 8001aec:	4603      	mov	r3, r0
 8001aee:	2b00      	cmp	r3, #0
 8001af0:	d004      	beq.n	8001afc <HAL_RTC_Init+0x48>
  {
    /* Set RTC state */
    hrtc->State = HAL_RTC_STATE_ERROR;
 8001af2:	687b      	ldr	r3, [r7, #4]
 8001af4:	2204      	movs	r2, #4
 8001af6:	745a      	strb	r2, [r3, #17]

    return HAL_ERROR;
 8001af8:	2301      	movs	r3, #1
 8001afa:	e06b      	b.n	8001bd4 <HAL_RTC_Init+0x120>
  }

  /* Set Initialization mode */
  if (RTC_EnterInitMode(hrtc) != HAL_OK)
 8001afc:	6878      	ldr	r0, [r7, #4]
 8001afe:	f000 fa81 	bl	8002004 <RTC_EnterInitMode>
 8001b02:	4603      	mov	r3, r0
 8001b04:	2b00      	cmp	r3, #0
 8001b06:	d004      	beq.n	8001b12 <HAL_RTC_Init+0x5e>
  {
    /* Set RTC state */
    hrtc->State = HAL_RTC_STATE_ERROR;
 8001b08:	687b      	ldr	r3, [r7, #4]
 8001b0a:	2204      	movs	r2, #4
 8001b0c:	745a      	strb	r2, [r3, #17]

    return HAL_ERROR;
 8001b0e:	2301      	movs	r3, #1
 8001b10:	e060      	b.n	8001bd4 <HAL_RTC_Init+0x120>
  }
  else
  {
    /* Clear Flags Bits */
    CLEAR_BIT(hrtc->Instance->CRL, (RTC_FLAG_OW | RTC_FLAG_ALRAF | RTC_FLAG_SEC));
 8001b12:	687b      	ldr	r3, [r7, #4]
 8001b14:	681b      	ldr	r3, [r3, #0]
 8001b16:	685a      	ldr	r2, [r3, #4]
 8001b18:	687b      	ldr	r3, [r7, #4]
 8001b1a:	681b      	ldr	r3, [r3, #0]
 8001b1c:	f022 0207 	bic.w	r2, r2, #7
 8001b20:	605a      	str	r2, [r3, #4]

    if (hrtc->Init.OutPut != RTC_OUTPUTSOURCE_NONE)
 8001b22:	687b      	ldr	r3, [r7, #4]
 8001b24:	689b      	ldr	r3, [r3, #8]
 8001b26:	2b00      	cmp	r3, #0
 8001b28:	d005      	beq.n	8001b36 <HAL_RTC_Init+0x82>
    {
      /* Disable the selected Tamper pin */
      CLEAR_BIT(BKP->CR, BKP_CR_TPE);
 8001b2a:	4b2c      	ldr	r3, [pc, #176]	; (8001bdc <HAL_RTC_Init+0x128>)
 8001b2c:	6b1b      	ldr	r3, [r3, #48]	; 0x30
 8001b2e:	4a2b      	ldr	r2, [pc, #172]	; (8001bdc <HAL_RTC_Init+0x128>)
 8001b30:	f023 0301 	bic.w	r3, r3, #1
 8001b34:	6313      	str	r3, [r2, #48]	; 0x30
    }

    /* Set the signal which will be routed to RTC Tamper pin*/
    MODIFY_REG(BKP->RTCCR, (BKP_RTCCR_CCO | BKP_RTCCR_ASOE | BKP_RTCCR_ASOS), hrtc->Init.OutPut);
 8001b36:	4b29      	ldr	r3, [pc, #164]	; (8001bdc <HAL_RTC_Init+0x128>)
 8001b38:	6adb      	ldr	r3, [r3, #44]	; 0x2c
 8001b3a:	f423 7260 	bic.w	r2, r3, #896	; 0x380
 8001b3e:	687b      	ldr	r3, [r7, #4]
 8001b40:	689b      	ldr	r3, [r3, #8]
 8001b42:	4926      	ldr	r1, [pc, #152]	; (8001bdc <HAL_RTC_Init+0x128>)
 8001b44:	4313      	orrs	r3, r2
 8001b46:	62cb      	str	r3, [r1, #44]	; 0x2c

    if (hrtc->Init.AsynchPrediv != RTC_AUTO_1_SECOND)
 8001b48:	687b      	ldr	r3, [r7, #4]
 8001b4a:	685b      	ldr	r3, [r3, #4]
 8001b4c:	f1b3 3fff 	cmp.w	r3, #4294967295
 8001b50:	d003      	beq.n	8001b5a <HAL_RTC_Init+0xa6>
    {
      /* RTC Prescaler provided directly by end-user*/
      prescaler = hrtc->Init.AsynchPrediv;
 8001b52:	687b      	ldr	r3, [r7, #4]
 8001b54:	685b      	ldr	r3, [r3, #4]
 8001b56:	60fb      	str	r3, [r7, #12]
 8001b58:	e00e      	b.n	8001b78 <HAL_RTC_Init+0xc4>
    }
    else
    {
      /* RTC Prescaler will be automatically calculated to get 1 second timebase */
      /* Get the RTCCLK frequency */
      prescaler = HAL_RCCEx_GetPeriphCLKFreq(RCC_PERIPHCLK_RTC);
 8001b5a:	2001      	movs	r0, #1
 8001b5c:	f7ff feee 	bl	800193c <HAL_RCCEx_GetPeriphCLKFreq>
 8001b60:	60f8      	str	r0, [r7, #12]

      /* Check that RTC clock is enabled*/
      if (prescaler == 0U)
 8001b62:	68fb      	ldr	r3, [r7, #12]
 8001b64:	2b00      	cmp	r3, #0
 8001b66:	d104      	bne.n	8001b72 <HAL_RTC_Init+0xbe>
      {
        /* Should not happen. Frequency is not available*/
        hrtc->State = HAL_RTC_STATE_ERROR;
 8001b68:	687b      	ldr	r3, [r7, #4]
 8001b6a:	2204      	movs	r2, #4
 8001b6c:	745a      	strb	r2, [r3, #17]
        return HAL_ERROR;
 8001b6e:	2301      	movs	r3, #1
 8001b70:	e030      	b.n	8001bd4 <HAL_RTC_Init+0x120>
      }
      else
      {
        /* RTC period = RTCCLK/(RTC_PR + 1) */
        prescaler = prescaler - 1U;
 8001b72:	68fb      	ldr	r3, [r7, #12]
 8001b74:	3b01      	subs	r3, #1
 8001b76:	60fb      	str	r3, [r7, #12]
      }
    }

    /* Configure the RTC_PRLH / RTC_PRLL */
    MODIFY_REG(hrtc->Instance->PRLH, RTC_PRLH_PRL, (prescaler >> 16U));
 8001b78:	687b      	ldr	r3, [r7, #4]
 8001b7a:	681b      	ldr	r3, [r3, #0]
 8001b7c:	689b      	ldr	r3, [r3, #8]
 8001b7e:	f023 010f 	bic.w	r1, r3, #15
 8001b82:	68fb      	ldr	r3, [r7, #12]
 8001b84:	0c1a      	lsrs	r2, r3, #16
 8001b86:	687b      	ldr	r3, [r7, #4]
 8001b88:	681b      	ldr	r3, [r3, #0]
 8001b8a:	430a      	orrs	r2, r1
 8001b8c:	609a      	str	r2, [r3, #8]
    MODIFY_REG(hrtc->Instance->PRLL, RTC_PRLL_PRL, (prescaler & RTC_PRLL_PRL));
 8001b8e:	687b      	ldr	r3, [r7, #4]
 8001b90:	681b      	ldr	r3, [r3, #0]
 8001b92:	68db      	ldr	r3, [r3, #12]
 8001b94:	0c1b      	lsrs	r3, r3, #16
 8001b96:	041b      	lsls	r3, r3, #16
 8001b98:	68fa      	ldr	r2, [r7, #12]
 8001b9a:	b291      	uxth	r1, r2
 8001b9c:	687a      	ldr	r2, [r7, #4]
 8001b9e:	6812      	ldr	r2, [r2, #0]
 8001ba0:	430b      	orrs	r3, r1
 8001ba2:	60d3      	str	r3, [r2, #12]

    /* Wait for synchro */
    if (RTC_ExitInitMode(hrtc) != HAL_OK)
 8001ba4:	6878      	ldr	r0, [r7, #4]
 8001ba6:	f000 fa55 	bl	8002054 <RTC_ExitInitMode>
 8001baa:	4603      	mov	r3, r0
 8001bac:	2b00      	cmp	r3, #0
 8001bae:	d004      	beq.n	8001bba <HAL_RTC_Init+0x106>
    {
      hrtc->State = HAL_RTC_STATE_ERROR;
 8001bb0:	687b      	ldr	r3, [r7, #4]
 8001bb2:	2204      	movs	r2, #4
 8001bb4:	745a      	strb	r2, [r3, #17]

      return HAL_ERROR;
 8001bb6:	2301      	movs	r3, #1
 8001bb8:	e00c      	b.n	8001bd4 <HAL_RTC_Init+0x120>
    }

    /* Initialize date to 1st of January 2000 */
    hrtc->DateToUpdate.Year = 0x00U;
 8001bba:	687b      	ldr	r3, [r7, #4]
 8001bbc:	2200      	movs	r2, #0
 8001bbe:	73da      	strb	r2, [r3, #15]
    hrtc->DateToUpdate.Month = RTC_MONTH_JANUARY;
 8001bc0:	687b      	ldr	r3, [r7, #4]
 8001bc2:	2201      	movs	r2, #1
 8001bc4:	735a      	strb	r2, [r3, #13]
    hrtc->DateToUpdate.Date = 0x01U;
 8001bc6:	687b      	ldr	r3, [r7, #4]
 8001bc8:	2201      	movs	r2, #1
 8001bca:	739a      	strb	r2, [r3, #14]

    /* Set RTC state */
    hrtc->State = HAL_RTC_STATE_READY;
 8001bcc:	687b      	ldr	r3, [r7, #4]
 8001bce:	2201      	movs	r2, #1
 8001bd0:	745a      	strb	r2, [r3, #17]

    return HAL_OK;
 8001bd2:	2300      	movs	r3, #0
  }
}
 8001bd4:	4618      	mov	r0, r3
 8001bd6:	3710      	adds	r7, #16
 8001bd8:	46bd      	mov	sp, r7
 8001bda:	bd80      	pop	{r7, pc}
 8001bdc:	40006c00 	.word	0x40006c00

08001be0 <HAL_RTC_SetTime>:
  *            @arg RTC_FORMAT_BIN: Binary data format
  *            @arg RTC_FORMAT_BCD: BCD data format
  * @retval HAL status
  */
HAL_StatusTypeDef HAL_RTC_SetTime(RTC_HandleTypeDef *hrtc, RTC_TimeTypeDef *sTime, uint32_t Format)
{
 8001be0:	b590      	push	{r4, r7, lr}
 8001be2:	b087      	sub	sp, #28
 8001be4:	af00      	add	r7, sp, #0
 8001be6:	60f8      	str	r0, [r7, #12]
 8001be8:	60b9      	str	r1, [r7, #8]
 8001bea:	607a      	str	r2, [r7, #4]
  uint32_t counter_time = 0U, counter_alarm = 0U;
 8001bec:	2300      	movs	r3, #0
 8001bee:	617b      	str	r3, [r7, #20]
 8001bf0:	2300      	movs	r3, #0
 8001bf2:	613b      	str	r3, [r7, #16]

  /* Check input parameters */
  if ((hrtc == NULL) || (sTime == NULL))
 8001bf4:	68fb      	ldr	r3, [r7, #12]
 8001bf6:	2b00      	cmp	r3, #0
 8001bf8:	d002      	beq.n	8001c00 <HAL_RTC_SetTime+0x20>
 8001bfa:	68bb      	ldr	r3, [r7, #8]
 8001bfc:	2b00      	cmp	r3, #0
 8001bfe:	d101      	bne.n	8001c04 <HAL_RTC_SetTime+0x24>
  {
    return HAL_ERROR;
 8001c00:	2301      	movs	r3, #1
 8001c02:	e080      	b.n	8001d06 <HAL_RTC_SetTime+0x126>

  /* Check the parameters */
  assert_param(IS_RTC_FORMAT(Format));

  /* Process Locked */
  __HAL_LOCK(hrtc);
 8001c04:	68fb      	ldr	r3, [r7, #12]
 8001c06:	7c1b      	ldrb	r3, [r3, #16]
 8001c08:	2b01      	cmp	r3, #1
 8001c0a:	d101      	bne.n	8001c10 <HAL_RTC_SetTime+0x30>
 8001c0c:	2302      	movs	r3, #2
 8001c0e:	e07a      	b.n	8001d06 <HAL_RTC_SetTime+0x126>
 8001c10:	68fb      	ldr	r3, [r7, #12]
 8001c12:	2201      	movs	r2, #1
 8001c14:	741a      	strb	r2, [r3, #16]

  hrtc->State = HAL_RTC_STATE_BUSY;
 8001c16:	68fb      	ldr	r3, [r7, #12]
 8001c18:	2202      	movs	r2, #2
 8001c1a:	745a      	strb	r2, [r3, #17]

  if (Format == RTC_FORMAT_BIN)
 8001c1c:	687b      	ldr	r3, [r7, #4]
 8001c1e:	2b00      	cmp	r3, #0
 8001c20:	d113      	bne.n	8001c4a <HAL_RTC_SetTime+0x6a>
  {
    assert_param(IS_RTC_HOUR24(sTime->Hours));
    assert_param(IS_RTC_MINUTES(sTime->Minutes));
    assert_param(IS_RTC_SECONDS(sTime->Seconds));

    counter_time = (uint32_t)(((uint32_t)sTime->Hours * 3600U) + \
 8001c22:	68bb      	ldr	r3, [r7, #8]
 8001c24:	781b      	ldrb	r3, [r3, #0]
 8001c26:	461a      	mov	r2, r3
 8001c28:	f44f 6361 	mov.w	r3, #3600	; 0xe10
 8001c2c:	fb03 f202 	mul.w	r2, r3, r2
                              ((uint32_t)sTime->Minutes * 60U) + \
 8001c30:	68bb      	ldr	r3, [r7, #8]
 8001c32:	785b      	ldrb	r3, [r3, #1]
 8001c34:	4619      	mov	r1, r3
 8001c36:	460b      	mov	r3, r1
 8001c38:	011b      	lsls	r3, r3, #4
 8001c3a:	1a5b      	subs	r3, r3, r1
 8001c3c:	009b      	lsls	r3, r3, #2
    counter_time = (uint32_t)(((uint32_t)sTime->Hours * 3600U) + \
 8001c3e:	4413      	add	r3, r2
                              ((uint32_t)sTime->Seconds));
 8001c40:	68ba      	ldr	r2, [r7, #8]
 8001c42:	7892      	ldrb	r2, [r2, #2]
    counter_time = (uint32_t)(((uint32_t)sTime->Hours * 3600U) + \
 8001c44:	4413      	add	r3, r2
 8001c46:	617b      	str	r3, [r7, #20]
 8001c48:	e01e      	b.n	8001c88 <HAL_RTC_SetTime+0xa8>
  {
    assert_param(IS_RTC_HOUR24(RTC_Bcd2ToByte(sTime->Hours)));
    assert_param(IS_RTC_MINUTES(RTC_Bcd2ToByte(sTime->Minutes)));
    assert_param(IS_RTC_SECONDS(RTC_Bcd2ToByte(sTime->Seconds)));

    counter_time = (((uint32_t)(RTC_Bcd2ToByte(sTime->Hours)) * 3600U) + \
 8001c4a:	68bb      	ldr	r3, [r7, #8]
 8001c4c:	781b      	ldrb	r3, [r3, #0]
 8001c4e:	4618      	mov	r0, r3
 8001c50:	f000 fa28 	bl	80020a4 <RTC_Bcd2ToByte>
 8001c54:	4603      	mov	r3, r0
 8001c56:	461a      	mov	r2, r3
 8001c58:	f44f 6361 	mov.w	r3, #3600	; 0xe10
 8001c5c:	fb03 f402 	mul.w	r4, r3, r2
                    ((uint32_t)(RTC_Bcd2ToByte(sTime->Minutes)) * 60U) + \
 8001c60:	68bb      	ldr	r3, [r7, #8]
 8001c62:	785b      	ldrb	r3, [r3, #1]
 8001c64:	4618      	mov	r0, r3
 8001c66:	f000 fa1d 	bl	80020a4 <RTC_Bcd2ToByte>
 8001c6a:	4603      	mov	r3, r0
 8001c6c:	461a      	mov	r2, r3
 8001c6e:	4613      	mov	r3, r2
 8001c70:	011b      	lsls	r3, r3, #4
 8001c72:	1a9b      	subs	r3, r3, r2
 8001c74:	009b      	lsls	r3, r3, #2
    counter_time = (((uint32_t)(RTC_Bcd2ToByte(sTime->Hours)) * 3600U) + \
 8001c76:	441c      	add	r4, r3
                    ((uint32_t)(RTC_Bcd2ToByte(sTime->Seconds))));
 8001c78:	68bb      	ldr	r3, [r7, #8]
 8001c7a:	789b      	ldrb	r3, [r3, #2]
 8001c7c:	4618      	mov	r0, r3
 8001c7e:	f000 fa11 	bl	80020a4 <RTC_Bcd2ToByte>
 8001c82:	4603      	mov	r3, r0
    counter_time = (((uint32_t)(RTC_Bcd2ToByte(sTime->Hours)) * 3600U) + \
 8001c84:	4423      	add	r3, r4
 8001c86:	617b      	str	r3, [r7, #20]
  }

  /* Write time counter in RTC registers */
  if (RTC_WriteTimeCounter(hrtc, counter_time) != HAL_OK)
 8001c88:	6979      	ldr	r1, [r7, #20]
 8001c8a:	68f8      	ldr	r0, [r7, #12]
 8001c8c:	f000 f953 	bl	8001f36 <RTC_WriteTimeCounter>
 8001c90:	4603      	mov	r3, r0
 8001c92:	2b00      	cmp	r3, #0
 8001c94:	d007      	beq.n	8001ca6 <HAL_RTC_SetTime+0xc6>
  {
    /* Set RTC state */
    hrtc->State = HAL_RTC_STATE_ERROR;
 8001c96:	68fb      	ldr	r3, [r7, #12]
 8001c98:	2204      	movs	r2, #4
 8001c9a:	745a      	strb	r2, [r3, #17]

    /* Process Unlocked */
    __HAL_UNLOCK(hrtc);
 8001c9c:	68fb      	ldr	r3, [r7, #12]
 8001c9e:	2200      	movs	r2, #0
 8001ca0:	741a      	strb	r2, [r3, #16]

    return HAL_ERROR;
 8001ca2:	2301      	movs	r3, #1
 8001ca4:	e02f      	b.n	8001d06 <HAL_RTC_SetTime+0x126>
  }
  else
  {
    /* Clear Second and overflow flags */
    CLEAR_BIT(hrtc->Instance->CRL, (RTC_FLAG_SEC | RTC_FLAG_OW));
 8001ca6:	68fb      	ldr	r3, [r7, #12]
 8001ca8:	681b      	ldr	r3, [r3, #0]
 8001caa:	685a      	ldr	r2, [r3, #4]
 8001cac:	68fb      	ldr	r3, [r7, #12]
 8001cae:	681b      	ldr	r3, [r3, #0]
 8001cb0:	f022 0205 	bic.w	r2, r2, #5
 8001cb4:	605a      	str	r2, [r3, #4]

    /* Read current Alarm counter in RTC registers */
    counter_alarm = RTC_ReadAlarmCounter(hrtc);
 8001cb6:	68f8      	ldr	r0, [r7, #12]
 8001cb8:	f000 f964 	bl	8001f84 <RTC_ReadAlarmCounter>
 8001cbc:	6138      	str	r0, [r7, #16]

    /* Set again alarm to match with new time if enabled */
    if (counter_alarm != RTC_ALARM_RESETVALUE)
 8001cbe:	693b      	ldr	r3, [r7, #16]
 8001cc0:	f1b3 3fff 	cmp.w	r3, #4294967295
 8001cc4:	d018      	beq.n	8001cf8 <HAL_RTC_SetTime+0x118>
    {
      if (counter_alarm < counter_time)
 8001cc6:	693a      	ldr	r2, [r7, #16]
 8001cc8:	697b      	ldr	r3, [r7, #20]
 8001cca:	429a      	cmp	r2, r3
 8001ccc:	d214      	bcs.n	8001cf8 <HAL_RTC_SetTime+0x118>
      {
        /* Add 1 day to alarm counter*/
        counter_alarm += (uint32_t)(24U * 3600U);
 8001cce:	693b      	ldr	r3, [r7, #16]
 8001cd0:	f503 33a8 	add.w	r3, r3, #86016	; 0x15000
 8001cd4:	f503 73c0 	add.w	r3, r3, #384	; 0x180
 8001cd8:	613b      	str	r3, [r7, #16]

        /* Write new Alarm counter in RTC registers */
        if (RTC_WriteAlarmCounter(hrtc, counter_alarm) != HAL_OK)
 8001cda:	6939      	ldr	r1, [r7, #16]
 8001cdc:	68f8      	ldr	r0, [r7, #12]
 8001cde:	f000 f96a 	bl	8001fb6 <RTC_WriteAlarmCounter>
 8001ce2:	4603      	mov	r3, r0
 8001ce4:	2b00      	cmp	r3, #0
 8001ce6:	d007      	beq.n	8001cf8 <HAL_RTC_SetTime+0x118>
        {
          /* Set RTC state */
          hrtc->State = HAL_RTC_STATE_ERROR;
 8001ce8:	68fb      	ldr	r3, [r7, #12]
 8001cea:	2204      	movs	r2, #4
 8001cec:	745a      	strb	r2, [r3, #17]

          /* Process Unlocked */
          __HAL_UNLOCK(hrtc);
 8001cee:	68fb      	ldr	r3, [r7, #12]
 8001cf0:	2200      	movs	r2, #0
 8001cf2:	741a      	strb	r2, [r3, #16]

          return HAL_ERROR;
 8001cf4:	2301      	movs	r3, #1
 8001cf6:	e006      	b.n	8001d06 <HAL_RTC_SetTime+0x126>
        }
      }
    }

    hrtc->State = HAL_RTC_STATE_READY;
 8001cf8:	68fb      	ldr	r3, [r7, #12]
 8001cfa:	2201      	movs	r2, #1
 8001cfc:	745a      	strb	r2, [r3, #17]

    __HAL_UNLOCK(hrtc);
 8001cfe:	68fb      	ldr	r3, [r7, #12]
 8001d00:	2200      	movs	r2, #0
 8001d02:	741a      	strb	r2, [r3, #16]

    return HAL_OK;
 8001d04:	2300      	movs	r3, #0
  }
}
 8001d06:	4618      	mov	r0, r3
 8001d08:	371c      	adds	r7, #28
 8001d0a:	46bd      	mov	sp, r7
 8001d0c:	bd90      	pop	{r4, r7, pc}
	...

08001d10 <HAL_RTC_SetDate>:
  *            @arg RTC_FORMAT_BIN: Binary data format
  *            @arg RTC_FORMAT_BCD: BCD data format
  * @retval HAL status
  */
HAL_StatusTypeDef HAL_RTC_SetDate(RTC_HandleTypeDef *hrtc, RTC_DateTypeDef *sDate, uint32_t Format)
{
 8001d10:	b580      	push	{r7, lr}
 8001d12:	b088      	sub	sp, #32
 8001d14:	af00      	add	r7, sp, #0
 8001d16:	60f8      	str	r0, [r7, #12]
 8001d18:	60b9      	str	r1, [r7, #8]
 8001d1a:	607a      	str	r2, [r7, #4]
  uint32_t counter_time = 0U, counter_alarm = 0U, hours = 0U;
 8001d1c:	2300      	movs	r3, #0
 8001d1e:	61fb      	str	r3, [r7, #28]
 8001d20:	2300      	movs	r3, #0
 8001d22:	61bb      	str	r3, [r7, #24]
 8001d24:	2300      	movs	r3, #0
 8001d26:	617b      	str	r3, [r7, #20]

  /* Check input parameters */
  if ((hrtc == NULL) || (sDate == NULL))
 8001d28:	68fb      	ldr	r3, [r7, #12]
 8001d2a:	2b00      	cmp	r3, #0
 8001d2c:	d002      	beq.n	8001d34 <HAL_RTC_SetDate+0x24>
 8001d2e:	68bb      	ldr	r3, [r7, #8]
 8001d30:	2b00      	cmp	r3, #0
 8001d32:	d101      	bne.n	8001d38 <HAL_RTC_SetDate+0x28>
  {
    return HAL_ERROR;
 8001d34:	2301      	movs	r3, #1
 8001d36:	e097      	b.n	8001e68 <HAL_RTC_SetDate+0x158>

  /* Check the parameters */
  assert_param(IS_RTC_FORMAT(Format));

  /* Process Locked */
  __HAL_LOCK(hrtc);
 8001d38:	68fb      	ldr	r3, [r7, #12]
 8001d3a:	7c1b      	ldrb	r3, [r3, #16]
 8001d3c:	2b01      	cmp	r3, #1
 8001d3e:	d101      	bne.n	8001d44 <HAL_RTC_SetDate+0x34>
 8001d40:	2302      	movs	r3, #2
 8001d42:	e091      	b.n	8001e68 <HAL_RTC_SetDate+0x158>
 8001d44:	68fb      	ldr	r3, [r7, #12]
 8001d46:	2201      	movs	r2, #1
 8001d48:	741a      	strb	r2, [r3, #16]

  hrtc->State = HAL_RTC_STATE_BUSY;
 8001d4a:	68fb      	ldr	r3, [r7, #12]
 8001d4c:	2202      	movs	r2, #2
 8001d4e:	745a      	strb	r2, [r3, #17]

  if (Format == RTC_FORMAT_BIN)
 8001d50:	687b      	ldr	r3, [r7, #4]
 8001d52:	2b00      	cmp	r3, #0
 8001d54:	d10c      	bne.n	8001d70 <HAL_RTC_SetDate+0x60>
    assert_param(IS_RTC_YEAR(sDate->Year));
    assert_param(IS_RTC_MONTH(sDate->Month));
    assert_param(IS_RTC_DATE(sDate->Date));

    /* Change the current date */
    hrtc->DateToUpdate.Year  = sDate->Year;
 8001d56:	68bb      	ldr	r3, [r7, #8]
 8001d58:	78da      	ldrb	r2, [r3, #3]
 8001d5a:	68fb      	ldr	r3, [r7, #12]
 8001d5c:	73da      	strb	r2, [r3, #15]
    hrtc->DateToUpdate.Month = sDate->Month;
 8001d5e:	68bb      	ldr	r3, [r7, #8]
 8001d60:	785a      	ldrb	r2, [r3, #1]
 8001d62:	68fb      	ldr	r3, [r7, #12]
 8001d64:	735a      	strb	r2, [r3, #13]
    hrtc->DateToUpdate.Date  = sDate->Date;
 8001d66:	68bb      	ldr	r3, [r7, #8]
 8001d68:	789a      	ldrb	r2, [r3, #2]
 8001d6a:	68fb      	ldr	r3, [r7, #12]
 8001d6c:	739a      	strb	r2, [r3, #14]
 8001d6e:	e01a      	b.n	8001da6 <HAL_RTC_SetDate+0x96>
    assert_param(IS_RTC_YEAR(RTC_Bcd2ToByte(sDate->Year)));
    assert_param(IS_RTC_MONTH(RTC_Bcd2ToByte(sDate->Month)));
    assert_param(IS_RTC_DATE(RTC_Bcd2ToByte(sDate->Date)));

    /* Change the current date */
    hrtc->DateToUpdate.Year  = RTC_Bcd2ToByte(sDate->Year);
 8001d70:	68bb      	ldr	r3, [r7, #8]
 8001d72:	78db      	ldrb	r3, [r3, #3]
 8001d74:	4618      	mov	r0, r3
 8001d76:	f000 f995 	bl	80020a4 <RTC_Bcd2ToByte>
 8001d7a:	4603      	mov	r3, r0
 8001d7c:	461a      	mov	r2, r3
 8001d7e:	68fb      	ldr	r3, [r7, #12]
 8001d80:	73da      	strb	r2, [r3, #15]
    hrtc->DateToUpdate.Month = RTC_Bcd2ToByte(sDate->Month);
 8001d82:	68bb      	ldr	r3, [r7, #8]
 8001d84:	785b      	ldrb	r3, [r3, #1]
 8001d86:	4618      	mov	r0, r3
 8001d88:	f000 f98c 	bl	80020a4 <RTC_Bcd2ToByte>
 8001d8c:	4603      	mov	r3, r0
 8001d8e:	461a      	mov	r2, r3
 8001d90:	68fb      	ldr	r3, [r7, #12]
 8001d92:	735a      	strb	r2, [r3, #13]
    hrtc->DateToUpdate.Date  = RTC_Bcd2ToByte(sDate->Date);
 8001d94:	68bb      	ldr	r3, [r7, #8]
 8001d96:	789b      	ldrb	r3, [r3, #2]
 8001d98:	4618      	mov	r0, r3
 8001d9a:	f000 f983 	bl	80020a4 <RTC_Bcd2ToByte>
 8001d9e:	4603      	mov	r3, r0
 8001da0:	461a      	mov	r2, r3
 8001da2:	68fb      	ldr	r3, [r7, #12]
 8001da4:	739a      	strb	r2, [r3, #14]
  }

  /* WeekDay set by user can be ignored because automatically calculated */
  hrtc->DateToUpdate.WeekDay = RTC_WeekDayNum(hrtc->DateToUpdate.Year, hrtc->DateToUpdate.Month, hrtc->DateToUpdate.Date);
 8001da6:	68fb      	ldr	r3, [r7, #12]
 8001da8:	7bdb      	ldrb	r3, [r3, #15]
 8001daa:	4618      	mov	r0, r3
 8001dac:	68fb      	ldr	r3, [r7, #12]
 8001dae:	7b59      	ldrb	r1, [r3, #13]
 8001db0:	68fb      	ldr	r3, [r7, #12]
 8001db2:	7b9b      	ldrb	r3, [r3, #14]
 8001db4:	461a      	mov	r2, r3
 8001db6:	f000 f993 	bl	80020e0 <RTC_WeekDayNum>
 8001dba:	4603      	mov	r3, r0
 8001dbc:	461a      	mov	r2, r3
 8001dbe:	68fb      	ldr	r3, [r7, #12]
 8001dc0:	731a      	strb	r2, [r3, #12]
  sDate->WeekDay = hrtc->DateToUpdate.WeekDay;
 8001dc2:	68fb      	ldr	r3, [r7, #12]
 8001dc4:	7b1a      	ldrb	r2, [r3, #12]
 8001dc6:	68bb      	ldr	r3, [r7, #8]
 8001dc8:	701a      	strb	r2, [r3, #0]

  /* Reset time to be aligned on the same day */
  /* Read the time counter*/
  counter_time = RTC_ReadTimeCounter(hrtc);
 8001dca:	68f8      	ldr	r0, [r7, #12]
 8001dcc:	f000 f883 	bl	8001ed6 <RTC_ReadTimeCounter>
 8001dd0:	61f8      	str	r0, [r7, #28]

  /* Fill the structure fields with the read parameters */
  hours = counter_time / 3600U;
 8001dd2:	69fb      	ldr	r3, [r7, #28]
 8001dd4:	4a26      	ldr	r2, [pc, #152]	; (8001e70 <HAL_RTC_SetDate+0x160>)
 8001dd6:	fba2 2303 	umull	r2, r3, r2, r3
 8001dda:	0adb      	lsrs	r3, r3, #11
 8001ddc:	617b      	str	r3, [r7, #20]
  if (hours > 24U)
 8001dde:	697b      	ldr	r3, [r7, #20]
 8001de0:	2b18      	cmp	r3, #24
 8001de2:	d93a      	bls.n	8001e5a <HAL_RTC_SetDate+0x14a>
  {
    /* Set updated time in decreasing counter by number of days elapsed */
    counter_time -= ((hours / 24U) * 24U * 3600U);
 8001de4:	697b      	ldr	r3, [r7, #20]
 8001de6:	4a23      	ldr	r2, [pc, #140]	; (8001e74 <HAL_RTC_SetDate+0x164>)
 8001de8:	fba2 2303 	umull	r2, r3, r2, r3
 8001dec:	091b      	lsrs	r3, r3, #4
 8001dee:	4a22      	ldr	r2, [pc, #136]	; (8001e78 <HAL_RTC_SetDate+0x168>)
 8001df0:	fb02 f303 	mul.w	r3, r2, r3
 8001df4:	69fa      	ldr	r2, [r7, #28]
 8001df6:	1ad3      	subs	r3, r2, r3
 8001df8:	61fb      	str	r3, [r7, #28]
    /* Write time counter in RTC registers */
    if (RTC_WriteTimeCounter(hrtc, counter_time) != HAL_OK)
 8001dfa:	69f9      	ldr	r1, [r7, #28]
 8001dfc:	68f8      	ldr	r0, [r7, #12]
 8001dfe:	f000 f89a 	bl	8001f36 <RTC_WriteTimeCounter>
 8001e02:	4603      	mov	r3, r0
 8001e04:	2b00      	cmp	r3, #0
 8001e06:	d007      	beq.n	8001e18 <HAL_RTC_SetDate+0x108>
    {
      /* Set RTC state */
      hrtc->State = HAL_RTC_STATE_ERROR;
 8001e08:	68fb      	ldr	r3, [r7, #12]
 8001e0a:	2204      	movs	r2, #4
 8001e0c:	745a      	strb	r2, [r3, #17]

      /* Process Unlocked */
      __HAL_UNLOCK(hrtc);
 8001e0e:	68fb      	ldr	r3, [r7, #12]
 8001e10:	2200      	movs	r2, #0
 8001e12:	741a      	strb	r2, [r3, #16]

      return HAL_ERROR;
 8001e14:	2301      	movs	r3, #1
 8001e16:	e027      	b.n	8001e68 <HAL_RTC_SetDate+0x158>
    }

    /* Read current Alarm counter in RTC registers */
    counter_alarm = RTC_ReadAlarmCounter(hrtc);
 8001e18:	68f8      	ldr	r0, [r7, #12]
 8001e1a:	f000 f8b3 	bl	8001f84 <RTC_ReadAlarmCounter>
 8001e1e:	61b8      	str	r0, [r7, #24]

    /* Set again alarm to match with new time if enabled */
    if (counter_alarm != RTC_ALARM_RESETVALUE)
 8001e20:	69bb      	ldr	r3, [r7, #24]
 8001e22:	f1b3 3fff 	cmp.w	r3, #4294967295
 8001e26:	d018      	beq.n	8001e5a <HAL_RTC_SetDate+0x14a>
    {
      if (counter_alarm < counter_time)
 8001e28:	69ba      	ldr	r2, [r7, #24]
 8001e2a:	69fb      	ldr	r3, [r7, #28]
 8001e2c:	429a      	cmp	r2, r3
 8001e2e:	d214      	bcs.n	8001e5a <HAL_RTC_SetDate+0x14a>
      {
        /* Add 1 day to alarm counter*/
        counter_alarm += (uint32_t)(24U * 3600U);
 8001e30:	69bb      	ldr	r3, [r7, #24]
 8001e32:	f503 33a8 	add.w	r3, r3, #86016	; 0x15000
 8001e36:	f503 73c0 	add.w	r3, r3, #384	; 0x180
 8001e3a:	61bb      	str	r3, [r7, #24]

        /* Write new Alarm counter in RTC registers */
        if (RTC_WriteAlarmCounter(hrtc, counter_alarm) != HAL_OK)
 8001e3c:	69b9      	ldr	r1, [r7, #24]
 8001e3e:	68f8      	ldr	r0, [r7, #12]
 8001e40:	f000 f8b9 	bl	8001fb6 <RTC_WriteAlarmCounter>
 8001e44:	4603      	mov	r3, r0
 8001e46:	2b00      	cmp	r3, #0
 8001e48:	d007      	beq.n	8001e5a <HAL_RTC_SetDate+0x14a>
        {
          /* Set RTC state */
          hrtc->State = HAL_RTC_STATE_ERROR;
 8001e4a:	68fb      	ldr	r3, [r7, #12]
 8001e4c:	2204      	movs	r2, #4
 8001e4e:	745a      	strb	r2, [r3, #17]

          /* Process Unlocked */
          __HAL_UNLOCK(hrtc);
 8001e50:	68fb      	ldr	r3, [r7, #12]
 8001e52:	2200      	movs	r2, #0
 8001e54:	741a      	strb	r2, [r3, #16]

          return HAL_ERROR;
 8001e56:	2301      	movs	r3, #1
 8001e58:	e006      	b.n	8001e68 <HAL_RTC_SetDate+0x158>
    }


  }

  hrtc->State = HAL_RTC_STATE_READY ;
 8001e5a:	68fb      	ldr	r3, [r7, #12]
 8001e5c:	2201      	movs	r2, #1
 8001e5e:	745a      	strb	r2, [r3, #17]

  /* Process Unlocked */
  __HAL_UNLOCK(hrtc);
 8001e60:	68fb      	ldr	r3, [r7, #12]
 8001e62:	2200      	movs	r2, #0
 8001e64:	741a      	strb	r2, [r3, #16]

  return HAL_OK;
 8001e66:	2300      	movs	r3, #0
}
 8001e68:	4618      	mov	r0, r3
 8001e6a:	3720      	adds	r7, #32
 8001e6c:	46bd      	mov	sp, r7
 8001e6e:	bd80      	pop	{r7, pc}
 8001e70:	91a2b3c5 	.word	0x91a2b3c5
 8001e74:	aaaaaaab 	.word	0xaaaaaaab
 8001e78:	00015180 	.word	0x00015180

08001e7c <HAL_RTC_WaitForSynchro>:
  * @param  hrtc   pointer to a RTC_HandleTypeDef structure that contains
  *                the configuration information for RTC.
  * @retval HAL status
  */
HAL_StatusTypeDef HAL_RTC_WaitForSynchro(RTC_HandleTypeDef *hrtc)
{
 8001e7c:	b580      	push	{r7, lr}
 8001e7e:	b084      	sub	sp, #16
 8001e80:	af00      	add	r7, sp, #0
 8001e82:	6078      	str	r0, [r7, #4]
  uint32_t tickstart = 0U;
 8001e84:	2300      	movs	r3, #0
 8001e86:	60fb      	str	r3, [r7, #12]

  /* Check input parameters */
  if (hrtc == NULL)
 8001e88:	687b      	ldr	r3, [r7, #4]
 8001e8a:	2b00      	cmp	r3, #0
 8001e8c:	d101      	bne.n	8001e92 <HAL_RTC_WaitForSynchro+0x16>
  {
    return HAL_ERROR;
 8001e8e:	2301      	movs	r3, #1
 8001e90:	e01d      	b.n	8001ece <HAL_RTC_WaitForSynchro+0x52>
  }

  /* Clear RSF flag */
  CLEAR_BIT(hrtc->Instance->CRL, RTC_FLAG_RSF);
 8001e92:	687b      	ldr	r3, [r7, #4]
 8001e94:	681b      	ldr	r3, [r3, #0]
 8001e96:	685a      	ldr	r2, [r3, #4]
 8001e98:	687b      	ldr	r3, [r7, #4]
 8001e9a:	681b      	ldr	r3, [r3, #0]
 8001e9c:	f022 0208 	bic.w	r2, r2, #8
 8001ea0:	605a      	str	r2, [r3, #4]

  tickstart = HAL_GetTick();
 8001ea2:	f7fe fdd3 	bl	8000a4c <HAL_GetTick>
 8001ea6:	60f8      	str	r0, [r7, #12]

  /* Wait the registers to be synchronised */
  while ((hrtc->Instance->CRL & RTC_FLAG_RSF) == (uint32_t)RESET)
 8001ea8:	e009      	b.n	8001ebe <HAL_RTC_WaitForSynchro+0x42>
  {
    if ((HAL_GetTick() - tickstart) >  RTC_TIMEOUT_VALUE)
 8001eaa:	f7fe fdcf 	bl	8000a4c <HAL_GetTick>
 8001eae:	4602      	mov	r2, r0
 8001eb0:	68fb      	ldr	r3, [r7, #12]
 8001eb2:	1ad3      	subs	r3, r2, r3
 8001eb4:	f5b3 7f7a 	cmp.w	r3, #1000	; 0x3e8
 8001eb8:	d901      	bls.n	8001ebe <HAL_RTC_WaitForSynchro+0x42>
    {
      return HAL_TIMEOUT;
 8001eba:	2303      	movs	r3, #3
 8001ebc:	e007      	b.n	8001ece <HAL_RTC_WaitForSynchro+0x52>
  while ((hrtc->Instance->CRL & RTC_FLAG_RSF) == (uint32_t)RESET)
 8001ebe:	687b      	ldr	r3, [r7, #4]
 8001ec0:	681b      	ldr	r3, [r3, #0]
 8001ec2:	685b      	ldr	r3, [r3, #4]
 8001ec4:	f003 0308 	and.w	r3, r3, #8
 8001ec8:	2b00      	cmp	r3, #0
 8001eca:	d0ee      	beq.n	8001eaa <HAL_RTC_WaitForSynchro+0x2e>
    }
  }

  return HAL_OK;
 8001ecc:	2300      	movs	r3, #0
}
 8001ece:	4618      	mov	r0, r3
 8001ed0:	3710      	adds	r7, #16
 8001ed2:	46bd      	mov	sp, r7
 8001ed4:	bd80      	pop	{r7, pc}

08001ed6 <RTC_ReadTimeCounter>:
  * @param  hrtc   pointer to a RTC_HandleTypeDef structure that contains
  *                the configuration information for RTC.
  * @retval Time counter
  */
static uint32_t RTC_ReadTimeCounter(RTC_HandleTypeDef *hrtc)
{
 8001ed6:	b480      	push	{r7}
 8001ed8:	b087      	sub	sp, #28
 8001eda:	af00      	add	r7, sp, #0
 8001edc:	6078      	str	r0, [r7, #4]
  uint16_t high1 = 0U, high2 = 0U, low = 0U;
 8001ede:	2300      	movs	r3, #0
 8001ee0:	827b      	strh	r3, [r7, #18]
 8001ee2:	2300      	movs	r3, #0
 8001ee4:	823b      	strh	r3, [r7, #16]
 8001ee6:	2300      	movs	r3, #0
 8001ee8:	81fb      	strh	r3, [r7, #14]
  uint32_t timecounter = 0U;
 8001eea:	2300      	movs	r3, #0
 8001eec:	617b      	str	r3, [r7, #20]

  high1 = READ_REG(hrtc->Instance->CNTH & RTC_CNTH_RTC_CNT);
 8001eee:	687b      	ldr	r3, [r7, #4]
 8001ef0:	681b      	ldr	r3, [r3, #0]
 8001ef2:	699b      	ldr	r3, [r3, #24]
 8001ef4:	827b      	strh	r3, [r7, #18]
  low   = READ_REG(hrtc->Instance->CNTL & RTC_CNTL_RTC_CNT);
 8001ef6:	687b      	ldr	r3, [r7, #4]
 8001ef8:	681b      	ldr	r3, [r3, #0]
 8001efa:	69db      	ldr	r3, [r3, #28]
 8001efc:	81fb      	strh	r3, [r7, #14]
  high2 = READ_REG(hrtc->Instance->CNTH & RTC_CNTH_RTC_CNT);
 8001efe:	687b      	ldr	r3, [r7, #4]
 8001f00:	681b      	ldr	r3, [r3, #0]
 8001f02:	699b      	ldr	r3, [r3, #24]
 8001f04:	823b      	strh	r3, [r7, #16]

  if (high1 != high2)
 8001f06:	8a7a      	ldrh	r2, [r7, #18]
 8001f08:	8a3b      	ldrh	r3, [r7, #16]
 8001f0a:	429a      	cmp	r2, r3
 8001f0c:	d008      	beq.n	8001f20 <RTC_ReadTimeCounter+0x4a>
  {
    /* In this case the counter roll over during reading of CNTL and CNTH registers,
       read again CNTL register then return the counter value */
    timecounter = (((uint32_t) high2 << 16U) | READ_REG(hrtc->Instance->CNTL & RTC_CNTL_RTC_CNT));
 8001f0e:	8a3b      	ldrh	r3, [r7, #16]
 8001f10:	041a      	lsls	r2, r3, #16
 8001f12:	687b      	ldr	r3, [r7, #4]
 8001f14:	681b      	ldr	r3, [r3, #0]
 8001f16:	69db      	ldr	r3, [r3, #28]
 8001f18:	b29b      	uxth	r3, r3
 8001f1a:	4313      	orrs	r3, r2
 8001f1c:	617b      	str	r3, [r7, #20]
 8001f1e:	e004      	b.n	8001f2a <RTC_ReadTimeCounter+0x54>
  }
  else
  {
    /* No counter roll over during reading of CNTL and CNTH registers, counter
       value is equal to first value of CNTL and CNTH */
    timecounter = (((uint32_t) high1 << 16U) | low);
 8001f20:	8a7b      	ldrh	r3, [r7, #18]
 8001f22:	041a      	lsls	r2, r3, #16
 8001f24:	89fb      	ldrh	r3, [r7, #14]
 8001f26:	4313      	orrs	r3, r2
 8001f28:	617b      	str	r3, [r7, #20]
  }

  return timecounter;
 8001f2a:	697b      	ldr	r3, [r7, #20]
}
 8001f2c:	4618      	mov	r0, r3
 8001f2e:	371c      	adds	r7, #28
 8001f30:	46bd      	mov	sp, r7
 8001f32:	bc80      	pop	{r7}
 8001f34:	4770      	bx	lr

08001f36 <RTC_WriteTimeCounter>:
  *                the configuration information for RTC.
  * @param  TimeCounter: Counter to write in RTC_CNT registers
  * @retval HAL status
  */
static HAL_StatusTypeDef RTC_WriteTimeCounter(RTC_HandleTypeDef *hrtc, uint32_t TimeCounter)
{
 8001f36:	b580      	push	{r7, lr}
 8001f38:	b084      	sub	sp, #16
 8001f3a:	af00      	add	r7, sp, #0
 8001f3c:	6078      	str	r0, [r7, #4]
 8001f3e:	6039      	str	r1, [r7, #0]
  HAL_StatusTypeDef status = HAL_OK;
 8001f40:	2300      	movs	r3, #0
 8001f42:	73fb      	strb	r3, [r7, #15]

  /* Set Initialization mode */
  if (RTC_EnterInitMode(hrtc) != HAL_OK)
 8001f44:	6878      	ldr	r0, [r7, #4]
 8001f46:	f000 f85d 	bl	8002004 <RTC_EnterInitMode>
 8001f4a:	4603      	mov	r3, r0
 8001f4c:	2b00      	cmp	r3, #0
 8001f4e:	d002      	beq.n	8001f56 <RTC_WriteTimeCounter+0x20>
  {
    status = HAL_ERROR;
 8001f50:	2301      	movs	r3, #1
 8001f52:	73fb      	strb	r3, [r7, #15]
 8001f54:	e011      	b.n	8001f7a <RTC_WriteTimeCounter+0x44>
  }
  else
  {
    /* Set RTC COUNTER MSB word */
    WRITE_REG(hrtc->Instance->CNTH, (TimeCounter >> 16U));
 8001f56:	687b      	ldr	r3, [r7, #4]
 8001f58:	681b      	ldr	r3, [r3, #0]
 8001f5a:	683a      	ldr	r2, [r7, #0]
 8001f5c:	0c12      	lsrs	r2, r2, #16
 8001f5e:	619a      	str	r2, [r3, #24]
    /* Set RTC COUNTER LSB word */
    WRITE_REG(hrtc->Instance->CNTL, (TimeCounter & RTC_CNTL_RTC_CNT));
 8001f60:	687b      	ldr	r3, [r7, #4]
 8001f62:	681b      	ldr	r3, [r3, #0]
 8001f64:	683a      	ldr	r2, [r7, #0]
 8001f66:	b292      	uxth	r2, r2
 8001f68:	61da      	str	r2, [r3, #28]

    /* Wait for synchro */
    if (RTC_ExitInitMode(hrtc) != HAL_OK)
 8001f6a:	6878      	ldr	r0, [r7, #4]
 8001f6c:	f000 f872 	bl	8002054 <RTC_ExitInitMode>
 8001f70:	4603      	mov	r3, r0
 8001f72:	2b00      	cmp	r3, #0
 8001f74:	d001      	beq.n	8001f7a <RTC_WriteTimeCounter+0x44>
    {
      status = HAL_ERROR;
 8001f76:	2301      	movs	r3, #1
 8001f78:	73fb      	strb	r3, [r7, #15]
    }
  }

  return status;
 8001f7a:	7bfb      	ldrb	r3, [r7, #15]
}
 8001f7c:	4618      	mov	r0, r3
 8001f7e:	3710      	adds	r7, #16
 8001f80:	46bd      	mov	sp, r7
 8001f82:	bd80      	pop	{r7, pc}

08001f84 <RTC_ReadAlarmCounter>:
  * @param  hrtc   pointer to a RTC_HandleTypeDef structure that contains
  *                the configuration information for RTC.
  * @retval Time counter
  */
static uint32_t RTC_ReadAlarmCounter(RTC_HandleTypeDef *hrtc)
{
 8001f84:	b480      	push	{r7}
 8001f86:	b085      	sub	sp, #20
 8001f88:	af00      	add	r7, sp, #0
 8001f8a:	6078      	str	r0, [r7, #4]
  uint16_t high1 = 0U, low = 0U;
 8001f8c:	2300      	movs	r3, #0
 8001f8e:	81fb      	strh	r3, [r7, #14]
 8001f90:	2300      	movs	r3, #0
 8001f92:	81bb      	strh	r3, [r7, #12]

  high1 = READ_REG(hrtc->Instance->ALRH & RTC_CNTH_RTC_CNT);
 8001f94:	687b      	ldr	r3, [r7, #4]
 8001f96:	681b      	ldr	r3, [r3, #0]
 8001f98:	6a1b      	ldr	r3, [r3, #32]
 8001f9a:	81fb      	strh	r3, [r7, #14]
  low   = READ_REG(hrtc->Instance->ALRL & RTC_CNTL_RTC_CNT);
 8001f9c:	687b      	ldr	r3, [r7, #4]
 8001f9e:	681b      	ldr	r3, [r3, #0]
 8001fa0:	6a5b      	ldr	r3, [r3, #36]	; 0x24
 8001fa2:	81bb      	strh	r3, [r7, #12]

  return (((uint32_t) high1 << 16U) | low);
 8001fa4:	89fb      	ldrh	r3, [r7, #14]
 8001fa6:	041a      	lsls	r2, r3, #16
 8001fa8:	89bb      	ldrh	r3, [r7, #12]
 8001faa:	4313      	orrs	r3, r2
}
 8001fac:	4618      	mov	r0, r3
 8001fae:	3714      	adds	r7, #20
 8001fb0:	46bd      	mov	sp, r7
 8001fb2:	bc80      	pop	{r7}
 8001fb4:	4770      	bx	lr

08001fb6 <RTC_WriteAlarmCounter>:
  *                the configuration information for RTC.
  * @param  AlarmCounter: Counter to write in RTC_ALR registers
  * @retval HAL status
  */
static HAL_StatusTypeDef RTC_WriteAlarmCounter(RTC_HandleTypeDef *hrtc, uint32_t AlarmCounter)
{
 8001fb6:	b580      	push	{r7, lr}
 8001fb8:	b084      	sub	sp, #16
 8001fba:	af00      	add	r7, sp, #0
 8001fbc:	6078      	str	r0, [r7, #4]
 8001fbe:	6039      	str	r1, [r7, #0]
  HAL_StatusTypeDef status = HAL_OK;
 8001fc0:	2300      	movs	r3, #0
 8001fc2:	73fb      	strb	r3, [r7, #15]

  /* Set Initialization mode */
  if (RTC_EnterInitMode(hrtc) != HAL_OK)
 8001fc4:	6878      	ldr	r0, [r7, #4]
 8001fc6:	f000 f81d 	bl	8002004 <RTC_EnterInitMode>
 8001fca:	4603      	mov	r3, r0
 8001fcc:	2b00      	cmp	r3, #0
 8001fce:	d002      	beq.n	8001fd6 <RTC_WriteAlarmCounter+0x20>
  {
    status = HAL_ERROR;
 8001fd0:	2301      	movs	r3, #1
 8001fd2:	73fb      	strb	r3, [r7, #15]
 8001fd4:	e011      	b.n	8001ffa <RTC_WriteAlarmCounter+0x44>
  }
  else
  {
    /* Set RTC COUNTER MSB word */
    WRITE_REG(hrtc->Instance->ALRH, (AlarmCounter >> 16U));
 8001fd6:	687b      	ldr	r3, [r7, #4]
 8001fd8:	681b      	ldr	r3, [r3, #0]
 8001fda:	683a      	ldr	r2, [r7, #0]
 8001fdc:	0c12      	lsrs	r2, r2, #16
 8001fde:	621a      	str	r2, [r3, #32]
    /* Set RTC COUNTER LSB word */
    WRITE_REG(hrtc->Instance->ALRL, (AlarmCounter & RTC_ALRL_RTC_ALR));
 8001fe0:	687b      	ldr	r3, [r7, #4]
 8001fe2:	681b      	ldr	r3, [r3, #0]
 8001fe4:	683a      	ldr	r2, [r7, #0]
 8001fe6:	b292      	uxth	r2, r2
 8001fe8:	625a      	str	r2, [r3, #36]	; 0x24

    /* Wait for synchro */
    if (RTC_ExitInitMode(hrtc) != HAL_OK)
 8001fea:	6878      	ldr	r0, [r7, #4]
 8001fec:	f000 f832 	bl	8002054 <RTC_ExitInitMode>
 8001ff0:	4603      	mov	r3, r0
 8001ff2:	2b00      	cmp	r3, #0
 8001ff4:	d001      	beq.n	8001ffa <RTC_WriteAlarmCounter+0x44>
    {
      status = HAL_ERROR;
 8001ff6:	2301      	movs	r3, #1
 8001ff8:	73fb      	strb	r3, [r7, #15]
    }
  }

  return status;
 8001ffa:	7bfb      	ldrb	r3, [r7, #15]
}
 8001ffc:	4618      	mov	r0, r3
 8001ffe:	3710      	adds	r7, #16
 8002000:	46bd      	mov	sp, r7
 8002002:	bd80      	pop	{r7, pc}

08002004 <RTC_EnterInitMode>:
  * @param  hrtc   pointer to a RTC_HandleTypeDef structure that contains
  *                the configuration information for RTC.
  * @retval HAL status
  */
static HAL_StatusTypeDef RTC_EnterInitMode(RTC_HandleTypeDef *hrtc)
{
 8002004:	b580      	push	{r7, lr}
 8002006:	b084      	sub	sp, #16
 8002008:	af00      	add	r7, sp, #0
 800200a:	6078      	str	r0, [r7, #4]
  uint32_t tickstart = 0U;
 800200c:	2300      	movs	r3, #0
 800200e:	60fb      	str	r3, [r7, #12]

  tickstart = HAL_GetTick();
 8002010:	f7fe fd1c 	bl	8000a4c <HAL_GetTick>
 8002014:	60f8      	str	r0, [r7, #12]
  /* Wait till RTC is in INIT state and if Time out is reached exit */
  while ((hrtc->Instance->CRL & RTC_CRL_RTOFF) == (uint32_t)RESET)
 8002016:	e009      	b.n	800202c <RTC_EnterInitMode+0x28>
  {
    if ((HAL_GetTick() - tickstart) >  RTC_TIMEOUT_VALUE)
 8002018:	f7fe fd18 	bl	8000a4c <HAL_GetTick>
 800201c:	4602      	mov	r2, r0
 800201e:	68fb      	ldr	r3, [r7, #12]
 8002020:	1ad3      	subs	r3, r2, r3
 8002022:	f5b3 7f7a 	cmp.w	r3, #1000	; 0x3e8
 8002026:	d901      	bls.n	800202c <RTC_EnterInitMode+0x28>
    {
      return HAL_TIMEOUT;
 8002028:	2303      	movs	r3, #3
 800202a:	e00f      	b.n	800204c <RTC_EnterInitMode+0x48>
  while ((hrtc->Instance->CRL & RTC_CRL_RTOFF) == (uint32_t)RESET)
 800202c:	687b      	ldr	r3, [r7, #4]
 800202e:	681b      	ldr	r3, [r3, #0]
 8002030:	685b      	ldr	r3, [r3, #4]
 8002032:	f003 0320 	and.w	r3, r3, #32
 8002036:	2b00      	cmp	r3, #0
 8002038:	d0ee      	beq.n	8002018 <RTC_EnterInitMode+0x14>
    }
  }

  /* Disable the write protection for RTC registers */
  __HAL_RTC_WRITEPROTECTION_DISABLE(hrtc);
 800203a:	687b      	ldr	r3, [r7, #4]
 800203c:	681b      	ldr	r3, [r3, #0]
 800203e:	685a      	ldr	r2, [r3, #4]
 8002040:	687b      	ldr	r3, [r7, #4]
 8002042:	681b      	ldr	r3, [r3, #0]
 8002044:	f042 0210 	orr.w	r2, r2, #16
 8002048:	605a      	str	r2, [r3, #4]


  return HAL_OK;
 800204a:	2300      	movs	r3, #0
}
 800204c:	4618      	mov	r0, r3
 800204e:	3710      	adds	r7, #16
 8002050:	46bd      	mov	sp, r7
 8002052:	bd80      	pop	{r7, pc}

08002054 <RTC_ExitInitMode>:
  * @param  hrtc   pointer to a RTC_HandleTypeDef structure that contains
  *                the configuration information for RTC.
  * @retval HAL status
  */
static HAL_StatusTypeDef RTC_ExitInitMode(RTC_HandleTypeDef *hrtc)
{
 8002054:	b580      	push	{r7, lr}
 8002056:	b084      	sub	sp, #16
 8002058:	af00      	add	r7, sp, #0
 800205a:	6078      	str	r0, [r7, #4]
  uint32_t tickstart = 0U;
 800205c:	2300      	movs	r3, #0
 800205e:	60fb      	str	r3, [r7, #12]

  /* Disable the write protection for RTC registers */
  __HAL_RTC_WRITEPROTECTION_ENABLE(hrtc);
 8002060:	687b      	ldr	r3, [r7, #4]
 8002062:	681b      	ldr	r3, [r3, #0]
 8002064:	685a      	ldr	r2, [r3, #4]
 8002066:	687b      	ldr	r3, [r7, #4]
 8002068:	681b      	ldr	r3, [r3, #0]
 800206a:	f022 0210 	bic.w	r2, r2, #16
 800206e:	605a      	str	r2, [r3, #4]

  tickstart = HAL_GetTick();
 8002070:	f7fe fcec 	bl	8000a4c <HAL_GetTick>
 8002074:	60f8      	str	r0, [r7, #12]
  /* Wait till RTC is in INIT state and if Time out is reached exit */
  while ((hrtc->Instance->CRL & RTC_CRL_RTOFF) == (uint32_t)RESET)
 8002076:	e009      	b.n	800208c <RTC_ExitInitMode+0x38>
  {
    if ((HAL_GetTick() - tickstart) >  RTC_TIMEOUT_VALUE)
 8002078:	f7fe fce8 	bl	8000a4c <HAL_GetTick>
 800207c:	4602      	mov	r2, r0
 800207e:	68fb      	ldr	r3, [r7, #12]
 8002080:	1ad3      	subs	r3, r2, r3
 8002082:	f5b3 7f7a 	cmp.w	r3, #1000	; 0x3e8
 8002086:	d901      	bls.n	800208c <RTC_ExitInitMode+0x38>
    {
      return HAL_TIMEOUT;
 8002088:	2303      	movs	r3, #3
 800208a:	e007      	b.n	800209c <RTC_ExitInitMode+0x48>
  while ((hrtc->Instance->CRL & RTC_CRL_RTOFF) == (uint32_t)RESET)
 800208c:	687b      	ldr	r3, [r7, #4]
 800208e:	681b      	ldr	r3, [r3, #0]
 8002090:	685b      	ldr	r3, [r3, #4]
 8002092:	f003 0320 	and.w	r3, r3, #32
 8002096:	2b00      	cmp	r3, #0
 8002098:	d0ee      	beq.n	8002078 <RTC_ExitInitMode+0x24>
    }
  }

  return HAL_OK;
 800209a:	2300      	movs	r3, #0
}
 800209c:	4618      	mov	r0, r3
 800209e:	3710      	adds	r7, #16
 80020a0:	46bd      	mov	sp, r7
 80020a2:	bd80      	pop	{r7, pc}

080020a4 <RTC_Bcd2ToByte>:
  * @brief  Converts from 2 digit BCD to Binary.
  * @param  Value: BCD value to be converted
  * @retval Converted word
  */
static uint8_t RTC_Bcd2ToByte(uint8_t Value)
{
 80020a4:	b480      	push	{r7}
 80020a6:	b085      	sub	sp, #20
 80020a8:	af00      	add	r7, sp, #0
 80020aa:	4603      	mov	r3, r0
 80020ac:	71fb      	strb	r3, [r7, #7]
  uint32_t tmp = 0U;
 80020ae:	2300      	movs	r3, #0
 80020b0:	60fb      	str	r3, [r7, #12]
  tmp = ((uint8_t)(Value & (uint8_t)0xF0) >> (uint8_t)0x4) * 10U;
 80020b2:	79fb      	ldrb	r3, [r7, #7]
 80020b4:	091b      	lsrs	r3, r3, #4
 80020b6:	b2db      	uxtb	r3, r3
 80020b8:	461a      	mov	r2, r3
 80020ba:	4613      	mov	r3, r2
 80020bc:	009b      	lsls	r3, r3, #2
 80020be:	4413      	add	r3, r2
 80020c0:	005b      	lsls	r3, r3, #1
 80020c2:	60fb      	str	r3, [r7, #12]
  return (tmp + (Value & (uint8_t)0x0F));
 80020c4:	79fb      	ldrb	r3, [r7, #7]
 80020c6:	f003 030f 	and.w	r3, r3, #15
 80020ca:	b2da      	uxtb	r2, r3
 80020cc:	68fb      	ldr	r3, [r7, #12]
 80020ce:	b2db      	uxtb	r3, r3
 80020d0:	4413      	add	r3, r2
 80020d2:	b2db      	uxtb	r3, r3
}
 80020d4:	4618      	mov	r0, r3
 80020d6:	3714      	adds	r7, #20
 80020d8:	46bd      	mov	sp, r7
 80020da:	bc80      	pop	{r7}
 80020dc:	4770      	bx	lr
	...

080020e0 <RTC_WeekDayNum>:
  *         @arg RTC_WEEKDAY_FRIDAY
  *         @arg RTC_WEEKDAY_SATURDAY
  *         @arg RTC_WEEKDAY_SUNDAY
  */
static uint8_t RTC_WeekDayNum(uint32_t nYear, uint8_t nMonth, uint8_t nDay)
{
 80020e0:	b480      	push	{r7}
 80020e2:	b085      	sub	sp, #20
 80020e4:	af00      	add	r7, sp, #0
 80020e6:	6078      	str	r0, [r7, #4]
 80020e8:	460b      	mov	r3, r1
 80020ea:	70fb      	strb	r3, [r7, #3]
 80020ec:	4613      	mov	r3, r2
 80020ee:	70bb      	strb	r3, [r7, #2]
  uint32_t year = 0U, weekday = 0U;
 80020f0:	2300      	movs	r3, #0
 80020f2:	60bb      	str	r3, [r7, #8]
 80020f4:	2300      	movs	r3, #0
 80020f6:	60fb      	str	r3, [r7, #12]

  year = 2000U + nYear;
 80020f8:	687b      	ldr	r3, [r7, #4]
 80020fa:	f503 63fa 	add.w	r3, r3, #2000	; 0x7d0
 80020fe:	60bb      	str	r3, [r7, #8]

  if (nMonth < 3U)
 8002100:	78fb      	ldrb	r3, [r7, #3]
 8002102:	2b02      	cmp	r3, #2
 8002104:	d82d      	bhi.n	8002162 <RTC_WeekDayNum+0x82>
  {
    /*D = { [(23 x month)/9] + day + 4 + year + [(year-1)/4] - [(year-1)/100] + [(year-1)/400] } mod 7*/
    weekday = (((23U * nMonth) / 9U) + nDay + 4U + year + ((year - 1U) / 4U) - ((year - 1U) / 100U) + ((year - 1U) / 400U)) % 7U;
 8002106:	78fa      	ldrb	r2, [r7, #3]
 8002108:	4613      	mov	r3, r2
 800210a:	005b      	lsls	r3, r3, #1
 800210c:	4413      	add	r3, r2
 800210e:	00db      	lsls	r3, r3, #3
 8002110:	1a9b      	subs	r3, r3, r2
 8002112:	4a2c      	ldr	r2, [pc, #176]	; (80021c4 <RTC_WeekDayNum+0xe4>)
 8002114:	fba2 2303 	umull	r2, r3, r2, r3
 8002118:	085a      	lsrs	r2, r3, #1
 800211a:	78bb      	ldrb	r3, [r7, #2]
 800211c:	441a      	add	r2, r3
 800211e:	68bb      	ldr	r3, [r7, #8]
 8002120:	441a      	add	r2, r3
 8002122:	68bb      	ldr	r3, [r7, #8]
 8002124:	3b01      	subs	r3, #1
 8002126:	089b      	lsrs	r3, r3, #2
 8002128:	441a      	add	r2, r3
 800212a:	68bb      	ldr	r3, [r7, #8]
 800212c:	3b01      	subs	r3, #1
 800212e:	4926      	ldr	r1, [pc, #152]	; (80021c8 <RTC_WeekDayNum+0xe8>)
 8002130:	fba1 1303 	umull	r1, r3, r1, r3
 8002134:	095b      	lsrs	r3, r3, #5
 8002136:	1ad2      	subs	r2, r2, r3
 8002138:	68bb      	ldr	r3, [r7, #8]
 800213a:	3b01      	subs	r3, #1
 800213c:	4922      	ldr	r1, [pc, #136]	; (80021c8 <RTC_WeekDayNum+0xe8>)
 800213e:	fba1 1303 	umull	r1, r3, r1, r3
 8002142:	09db      	lsrs	r3, r3, #7
 8002144:	4413      	add	r3, r2
 8002146:	1d1a      	adds	r2, r3, #4
 8002148:	4b20      	ldr	r3, [pc, #128]	; (80021cc <RTC_WeekDayNum+0xec>)
 800214a:	fba3 1302 	umull	r1, r3, r3, r2
 800214e:	1ad1      	subs	r1, r2, r3
 8002150:	0849      	lsrs	r1, r1, #1
 8002152:	440b      	add	r3, r1
 8002154:	0899      	lsrs	r1, r3, #2
 8002156:	460b      	mov	r3, r1
 8002158:	00db      	lsls	r3, r3, #3
 800215a:	1a5b      	subs	r3, r3, r1
 800215c:	1ad3      	subs	r3, r2, r3
 800215e:	60fb      	str	r3, [r7, #12]
 8002160:	e029      	b.n	80021b6 <RTC_WeekDayNum+0xd6>
  }
  else
  {
    /*D = { [(23 x month)/9] + day + 4 + year + [year/4] - [year/100] + [year/400] - 2 } mod 7*/
    weekday = (((23U * nMonth) / 9U) + nDay + 4U + year + (year / 4U) - (year / 100U) + (year / 400U) - 2U) % 7U;
 8002162:	78fa      	ldrb	r2, [r7, #3]
 8002164:	4613      	mov	r3, r2
 8002166:	005b      	lsls	r3, r3, #1
 8002168:	4413      	add	r3, r2
 800216a:	00db      	lsls	r3, r3, #3
 800216c:	1a9b      	subs	r3, r3, r2
 800216e:	4a15      	ldr	r2, [pc, #84]	; (80021c4 <RTC_WeekDayNum+0xe4>)
 8002170:	fba2 2303 	umull	r2, r3, r2, r3
 8002174:	085a      	lsrs	r2, r3, #1
 8002176:	78bb      	ldrb	r3, [r7, #2]
 8002178:	441a      	add	r2, r3
 800217a:	68bb      	ldr	r3, [r7, #8]
 800217c:	441a      	add	r2, r3
 800217e:	68bb      	ldr	r3, [r7, #8]
 8002180:	089b      	lsrs	r3, r3, #2
 8002182:	441a      	add	r2, r3
 8002184:	68bb      	ldr	r3, [r7, #8]
 8002186:	4910      	ldr	r1, [pc, #64]	; (80021c8 <RTC_WeekDayNum+0xe8>)
 8002188:	fba1 1303 	umull	r1, r3, r1, r3
 800218c:	095b      	lsrs	r3, r3, #5
 800218e:	1ad2      	subs	r2, r2, r3
 8002190:	68bb      	ldr	r3, [r7, #8]
 8002192:	490d      	ldr	r1, [pc, #52]	; (80021c8 <RTC_WeekDayNum+0xe8>)
 8002194:	fba1 1303 	umull	r1, r3, r1, r3
 8002198:	09db      	lsrs	r3, r3, #7
 800219a:	4413      	add	r3, r2
 800219c:	1c9a      	adds	r2, r3, #2
 800219e:	4b0b      	ldr	r3, [pc, #44]	; (80021cc <RTC_WeekDayNum+0xec>)
 80021a0:	fba3 1302 	umull	r1, r3, r3, r2
 80021a4:	1ad1      	subs	r1, r2, r3
 80021a6:	0849      	lsrs	r1, r1, #1
 80021a8:	440b      	add	r3, r1
 80021aa:	0899      	lsrs	r1, r3, #2
 80021ac:	460b      	mov	r3, r1
 80021ae:	00db      	lsls	r3, r3, #3
 80021b0:	1a5b      	subs	r3, r3, r1
 80021b2:	1ad3      	subs	r3, r2, r3
 80021b4:	60fb      	str	r3, [r7, #12]
  }

  return (uint8_t)weekday;
 80021b6:	68fb      	ldr	r3, [r7, #12]
 80021b8:	b2db      	uxtb	r3, r3
}
 80021ba:	4618      	mov	r0, r3
 80021bc:	3714      	adds	r7, #20
 80021be:	46bd      	mov	sp, r7
 80021c0:	bc80      	pop	{r7}
 80021c2:	4770      	bx	lr
 80021c4:	38e38e39 	.word	0x38e38e39
 80021c8:	51eb851f 	.word	0x51eb851f
 80021cc:	24924925 	.word	0x24924925

080021d0 <HAL_TIM_Base_Init>:
  *         Ex: call @ref HAL_TIM_Base_DeInit() before HAL_TIM_Base_Init()
  * @param  htim TIM Base handle
  * @retval HAL status
  */
HAL_StatusTypeDef HAL_TIM_Base_Init(TIM_HandleTypeDef *htim)
{
 80021d0:	b580      	push	{r7, lr}
 80021d2:	b082      	sub	sp, #8
 80021d4:	af00      	add	r7, sp, #0
 80021d6:	6078      	str	r0, [r7, #4]
  /* Check the TIM handle allocation */
  if (htim == NULL)
 80021d8:	687b      	ldr	r3, [r7, #4]
 80021da:	2b00      	cmp	r3, #0
 80021dc:	d101      	bne.n	80021e2 <HAL_TIM_Base_Init+0x12>
  {
    return HAL_ERROR;
 80021de:	2301      	movs	r3, #1
 80021e0:	e01d      	b.n	800221e <HAL_TIM_Base_Init+0x4e>
  assert_param(IS_TIM_INSTANCE(htim->Instance));
  assert_param(IS_TIM_COUNTER_MODE(htim->Init.CounterMode));
  assert_param(IS_TIM_CLOCKDIVISION_DIV(htim->Init.ClockDivision));
  assert_param(IS_TIM_AUTORELOAD_PRELOAD(htim->Init.AutoReloadPreload));

  if (htim->State == HAL_TIM_STATE_RESET)
 80021e2:	687b      	ldr	r3, [r7, #4]
 80021e4:	f893 303d 	ldrb.w	r3, [r3, #61]	; 0x3d
 80021e8:	b2db      	uxtb	r3, r3
 80021ea:	2b00      	cmp	r3, #0
 80021ec:	d106      	bne.n	80021fc <HAL_TIM_Base_Init+0x2c>
  {
    /* Allocate lock resource and initialize it */
    htim->Lock = HAL_UNLOCKED;
 80021ee:	687b      	ldr	r3, [r7, #4]
 80021f0:	2200      	movs	r2, #0
 80021f2:	f883 203c 	strb.w	r2, [r3, #60]	; 0x3c
    }
    /* Init the low level hardware : GPIO, CLOCK, NVIC */
    htim->Base_MspInitCallback(htim);
#else
    /* Init the low level hardware : GPIO, CLOCK, NVIC */
    HAL_TIM_Base_MspInit(htim);
 80021f6:	6878      	ldr	r0, [r7, #4]
 80021f8:	f7fe fa20 	bl	800063c <HAL_TIM_Base_MspInit>
#endif /* USE_HAL_TIM_REGISTER_CALLBACKS */
  }

  /* Set the TIM state */
  htim->State = HAL_TIM_STATE_BUSY;
 80021fc:	687b      	ldr	r3, [r7, #4]
 80021fe:	2202      	movs	r2, #2
 8002200:	f883 203d 	strb.w	r2, [r3, #61]	; 0x3d

  /* Set the Time Base configuration */
  TIM_Base_SetConfig(htim->Instance, &htim->Init);
 8002204:	687b      	ldr	r3, [r7, #4]
 8002206:	681a      	ldr	r2, [r3, #0]
 8002208:	687b      	ldr	r3, [r7, #4]
 800220a:	3304      	adds	r3, #4
 800220c:	4619      	mov	r1, r3
 800220e:	4610      	mov	r0, r2
 8002210:	f000 f9ee 	bl	80025f0 <TIM_Base_SetConfig>

  /* Initialize the TIM state*/
  htim->State = HAL_TIM_STATE_READY;
 8002214:	687b      	ldr	r3, [r7, #4]
 8002216:	2201      	movs	r2, #1
 8002218:	f883 203d 	strb.w	r2, [r3, #61]	; 0x3d

  return HAL_OK;
 800221c:	2300      	movs	r3, #0
}
 800221e:	4618      	mov	r0, r3
 8002220:	3708      	adds	r7, #8
 8002222:	46bd      	mov	sp, r7
 8002224:	bd80      	pop	{r7, pc}

08002226 <HAL_TIM_PWM_Init>:
  *         Ex: call @ref HAL_TIM_PWM_DeInit() before HAL_TIM_PWM_Init()
  * @param  htim TIM PWM handle
  * @retval HAL status
  */
HAL_StatusTypeDef HAL_TIM_PWM_Init(TIM_HandleTypeDef *htim)
{
 8002226:	b580      	push	{r7, lr}
 8002228:	b082      	sub	sp, #8
 800222a:	af00      	add	r7, sp, #0
 800222c:	6078      	str	r0, [r7, #4]
  /* Check the TIM handle allocation */
  if (htim == NULL)
 800222e:	687b      	ldr	r3, [r7, #4]
 8002230:	2b00      	cmp	r3, #0
 8002232:	d101      	bne.n	8002238 <HAL_TIM_PWM_Init+0x12>
  {
    return HAL_ERROR;
 8002234:	2301      	movs	r3, #1
 8002236:	e01d      	b.n	8002274 <HAL_TIM_PWM_Init+0x4e>
  assert_param(IS_TIM_INSTANCE(htim->Instance));
  assert_param(IS_TIM_COUNTER_MODE(htim->Init.CounterMode));
  assert_param(IS_TIM_CLOCKDIVISION_DIV(htim->Init.ClockDivision));
  assert_param(IS_TIM_AUTORELOAD_PRELOAD(htim->Init.AutoReloadPreload));

  if (htim->State == HAL_TIM_STATE_RESET)
 8002238:	687b      	ldr	r3, [r7, #4]
 800223a:	f893 303d 	ldrb.w	r3, [r3, #61]	; 0x3d
 800223e:	b2db      	uxtb	r3, r3
 8002240:	2b00      	cmp	r3, #0
 8002242:	d106      	bne.n	8002252 <HAL_TIM_PWM_Init+0x2c>
  {
    /* Allocate lock resource and initialize it */
    htim->Lock = HAL_UNLOCKED;
 8002244:	687b      	ldr	r3, [r7, #4]
 8002246:	2200      	movs	r2, #0
 8002248:	f883 203c 	strb.w	r2, [r3, #60]	; 0x3c
    }
    /* Init the low level hardware : GPIO, CLOCK, NVIC */
    htim->PWM_MspInitCallback(htim);
#else
    /* Init the low level hardware : GPIO, CLOCK, NVIC and DMA */
    HAL_TIM_PWM_MspInit(htim);
 800224c:	6878      	ldr	r0, [r7, #4]
 800224e:	f000 f815 	bl	800227c <HAL_TIM_PWM_MspInit>
#endif /* USE_HAL_TIM_REGISTER_CALLBACKS */
  }

  /* Set the TIM state */
  htim->State = HAL_TIM_STATE_BUSY;
 8002252:	687b      	ldr	r3, [r7, #4]
 8002254:	2202      	movs	r2, #2
 8002256:	f883 203d 	strb.w	r2, [r3, #61]	; 0x3d

  /* Init the base time for the PWM */
  TIM_Base_SetConfig(htim->Instance, &htim->Init);
 800225a:	687b      	ldr	r3, [r7, #4]
 800225c:	681a      	ldr	r2, [r3, #0]
 800225e:	687b      	ldr	r3, [r7, #4]
 8002260:	3304      	adds	r3, #4
 8002262:	4619      	mov	r1, r3
 8002264:	4610      	mov	r0, r2
 8002266:	f000 f9c3 	bl	80025f0 <TIM_Base_SetConfig>

  /* Initialize the TIM state*/
  htim->State = HAL_TIM_STATE_READY;
 800226a:	687b      	ldr	r3, [r7, #4]
 800226c:	2201      	movs	r2, #1
 800226e:	f883 203d 	strb.w	r2, [r3, #61]	; 0x3d

  return HAL_OK;
 8002272:	2300      	movs	r3, #0
}
 8002274:	4618      	mov	r0, r3
 8002276:	3708      	adds	r7, #8
 8002278:	46bd      	mov	sp, r7
 800227a:	bd80      	pop	{r7, pc}

0800227c <HAL_TIM_PWM_MspInit>:
  * @brief  Initializes the TIM PWM MSP.
  * @param  htim TIM PWM handle
  * @retval None
  */
__weak void HAL_TIM_PWM_MspInit(TIM_HandleTypeDef *htim)
{
 800227c:	b480      	push	{r7}
 800227e:	b083      	sub	sp, #12
 8002280:	af00      	add	r7, sp, #0
 8002282:	6078      	str	r0, [r7, #4]
  UNUSED(htim);

  /* NOTE : This function should not be modified, when the callback is needed,
            the HAL_TIM_PWM_MspInit could be implemented in the user file
   */
}
 8002284:	bf00      	nop
 8002286:	370c      	adds	r7, #12
 8002288:	46bd      	mov	sp, r7
 800228a:	bc80      	pop	{r7}
 800228c:	4770      	bx	lr
	...

08002290 <HAL_TIM_PWM_Start>:
  *            @arg TIM_CHANNEL_3: TIM Channel 3 selected
  *            @arg TIM_CHANNEL_4: TIM Channel 4 selected
  * @retval HAL status
  */
HAL_StatusTypeDef HAL_TIM_PWM_Start(TIM_HandleTypeDef *htim, uint32_t Channel)
{
 8002290:	b580      	push	{r7, lr}
 8002292:	b084      	sub	sp, #16
 8002294:	af00      	add	r7, sp, #0
 8002296:	6078      	str	r0, [r7, #4]
 8002298:	6039      	str	r1, [r7, #0]

  /* Check the parameters */
  assert_param(IS_TIM_CCX_INSTANCE(htim->Instance, Channel));

  /* Enable the Capture compare channel */
  TIM_CCxChannelCmd(htim->Instance, Channel, TIM_CCx_ENABLE);
 800229a:	687b      	ldr	r3, [r7, #4]
 800229c:	681b      	ldr	r3, [r3, #0]
 800229e:	2201      	movs	r2, #1
 80022a0:	6839      	ldr	r1, [r7, #0]
 80022a2:	4618      	mov	r0, r3
 80022a4:	f000 fc24 	bl	8002af0 <TIM_CCxChannelCmd>

  if (IS_TIM_BREAK_INSTANCE(htim->Instance) != RESET)
 80022a8:	687b      	ldr	r3, [r7, #4]
 80022aa:	681b      	ldr	r3, [r3, #0]
 80022ac:	4a10      	ldr	r2, [pc, #64]	; (80022f0 <HAL_TIM_PWM_Start+0x60>)
 80022ae:	4293      	cmp	r3, r2
 80022b0:	d107      	bne.n	80022c2 <HAL_TIM_PWM_Start+0x32>
  {
    /* Enable the main output */
    __HAL_TIM_MOE_ENABLE(htim);
 80022b2:	687b      	ldr	r3, [r7, #4]
 80022b4:	681b      	ldr	r3, [r3, #0]
 80022b6:	6c5a      	ldr	r2, [r3, #68]	; 0x44
 80022b8:	687b      	ldr	r3, [r7, #4]
 80022ba:	681b      	ldr	r3, [r3, #0]
 80022bc:	f442 4200 	orr.w	r2, r2, #32768	; 0x8000
 80022c0:	645a      	str	r2, [r3, #68]	; 0x44
  }

  /* Enable the Peripheral, except in trigger mode where enable is automatically done with trigger */
  tmpsmcr = htim->Instance->SMCR & TIM_SMCR_SMS;
 80022c2:	687b      	ldr	r3, [r7, #4]
 80022c4:	681b      	ldr	r3, [r3, #0]
 80022c6:	689b      	ldr	r3, [r3, #8]
 80022c8:	f003 0307 	and.w	r3, r3, #7
 80022cc:	60fb      	str	r3, [r7, #12]
  if (!IS_TIM_SLAVEMODE_TRIGGER_ENABLED(tmpsmcr))
 80022ce:	68fb      	ldr	r3, [r7, #12]
 80022d0:	2b06      	cmp	r3, #6
 80022d2:	d007      	beq.n	80022e4 <HAL_TIM_PWM_Start+0x54>
  {
    __HAL_TIM_ENABLE(htim);
 80022d4:	687b      	ldr	r3, [r7, #4]
 80022d6:	681b      	ldr	r3, [r3, #0]
 80022d8:	681a      	ldr	r2, [r3, #0]
 80022da:	687b      	ldr	r3, [r7, #4]
 80022dc:	681b      	ldr	r3, [r3, #0]
 80022de:	f042 0201 	orr.w	r2, r2, #1
 80022e2:	601a      	str	r2, [r3, #0]
  }

  /* Return function status */
  return HAL_OK;
 80022e4:	2300      	movs	r3, #0
}
 80022e6:	4618      	mov	r0, r3
 80022e8:	3710      	adds	r7, #16
 80022ea:	46bd      	mov	sp, r7
 80022ec:	bd80      	pop	{r7, pc}
 80022ee:	bf00      	nop
 80022f0:	40012c00 	.word	0x40012c00

080022f4 <HAL_TIM_PWM_ConfigChannel>:
  * @retval HAL status
  */
HAL_StatusTypeDef HAL_TIM_PWM_ConfigChannel(TIM_HandleTypeDef *htim,
                                            TIM_OC_InitTypeDef *sConfig,
                                            uint32_t Channel)
{
 80022f4:	b580      	push	{r7, lr}
 80022f6:	b084      	sub	sp, #16
 80022f8:	af00      	add	r7, sp, #0
 80022fa:	60f8      	str	r0, [r7, #12]
 80022fc:	60b9      	str	r1, [r7, #8]
 80022fe:	607a      	str	r2, [r7, #4]
  assert_param(IS_TIM_PWM_MODE(sConfig->OCMode));
  assert_param(IS_TIM_OC_POLARITY(sConfig->OCPolarity));
  assert_param(IS_TIM_FAST_STATE(sConfig->OCFastMode));

  /* Process Locked */
  __HAL_LOCK(htim);
 8002300:	68fb      	ldr	r3, [r7, #12]
 8002302:	f893 303c 	ldrb.w	r3, [r3, #60]	; 0x3c
 8002306:	2b01      	cmp	r3, #1
 8002308:	d101      	bne.n	800230e <HAL_TIM_PWM_ConfigChannel+0x1a>
 800230a:	2302      	movs	r3, #2
 800230c:	e0b4      	b.n	8002478 <HAL_TIM_PWM_ConfigChannel+0x184>
 800230e:	68fb      	ldr	r3, [r7, #12]
 8002310:	2201      	movs	r2, #1
 8002312:	f883 203c 	strb.w	r2, [r3, #60]	; 0x3c

  htim->State = HAL_TIM_STATE_BUSY;
 8002316:	68fb      	ldr	r3, [r7, #12]
 8002318:	2202      	movs	r2, #2
 800231a:	f883 203d 	strb.w	r2, [r3, #61]	; 0x3d

  switch (Channel)
 800231e:	687b      	ldr	r3, [r7, #4]
 8002320:	2b0c      	cmp	r3, #12
 8002322:	f200 809f 	bhi.w	8002464 <HAL_TIM_PWM_ConfigChannel+0x170>
 8002326:	a201      	add	r2, pc, #4	; (adr r2, 800232c <HAL_TIM_PWM_ConfigChannel+0x38>)
 8002328:	f852 f023 	ldr.w	pc, [r2, r3, lsl #2]
 800232c:	08002361 	.word	0x08002361
 8002330:	08002465 	.word	0x08002465
 8002334:	08002465 	.word	0x08002465
 8002338:	08002465 	.word	0x08002465
 800233c:	080023a1 	.word	0x080023a1
 8002340:	08002465 	.word	0x08002465
 8002344:	08002465 	.word	0x08002465
 8002348:	08002465 	.word	0x08002465
 800234c:	080023e3 	.word	0x080023e3
 8002350:	08002465 	.word	0x08002465
 8002354:	08002465 	.word	0x08002465
 8002358:	08002465 	.word	0x08002465
 800235c:	08002423 	.word	0x08002423
    {
      /* Check the parameters */
      assert_param(IS_TIM_CC1_INSTANCE(htim->Instance));

      /* Configure the Channel 1 in PWM mode */
      TIM_OC1_SetConfig(htim->Instance, sConfig);
 8002360:	68fb      	ldr	r3, [r7, #12]
 8002362:	681b      	ldr	r3, [r3, #0]
 8002364:	68b9      	ldr	r1, [r7, #8]
 8002366:	4618      	mov	r0, r3
 8002368:	f000 f9a4 	bl	80026b4 <TIM_OC1_SetConfig>

      /* Set the Preload enable bit for channel1 */
      htim->Instance->CCMR1 |= TIM_CCMR1_OC1PE;
 800236c:	68fb      	ldr	r3, [r7, #12]
 800236e:	681b      	ldr	r3, [r3, #0]
 8002370:	699a      	ldr	r2, [r3, #24]
 8002372:	68fb      	ldr	r3, [r7, #12]
 8002374:	681b      	ldr	r3, [r3, #0]
 8002376:	f042 0208 	orr.w	r2, r2, #8
 800237a:	619a      	str	r2, [r3, #24]

      /* Configure the Output Fast mode */
      htim->Instance->CCMR1 &= ~TIM_CCMR1_OC1FE;
 800237c:	68fb      	ldr	r3, [r7, #12]
 800237e:	681b      	ldr	r3, [r3, #0]
 8002380:	699a      	ldr	r2, [r3, #24]
 8002382:	68fb      	ldr	r3, [r7, #12]
 8002384:	681b      	ldr	r3, [r3, #0]
 8002386:	f022 0204 	bic.w	r2, r2, #4
 800238a:	619a      	str	r2, [r3, #24]
      htim->Instance->CCMR1 |= sConfig->OCFastMode;
 800238c:	68fb      	ldr	r3, [r7, #12]
 800238e:	681b      	ldr	r3, [r3, #0]
 8002390:	6999      	ldr	r1, [r3, #24]
 8002392:	68bb      	ldr	r3, [r7, #8]
 8002394:	691a      	ldr	r2, [r3, #16]
 8002396:	68fb      	ldr	r3, [r7, #12]
 8002398:	681b      	ldr	r3, [r3, #0]
 800239a:	430a      	orrs	r2, r1
 800239c:	619a      	str	r2, [r3, #24]
      break;
 800239e:	e062      	b.n	8002466 <HAL_TIM_PWM_ConfigChannel+0x172>
    {
      /* Check the parameters */
      assert_param(IS_TIM_CC2_INSTANCE(htim->Instance));

      /* Configure the Channel 2 in PWM mode */
      TIM_OC2_SetConfig(htim->Instance, sConfig);
 80023a0:	68fb      	ldr	r3, [r7, #12]
 80023a2:	681b      	ldr	r3, [r3, #0]
 80023a4:	68b9      	ldr	r1, [r7, #8]
 80023a6:	4618      	mov	r0, r3
 80023a8:	f000 f9ea 	bl	8002780 <TIM_OC2_SetConfig>

      /* Set the Preload enable bit for channel2 */
      htim->Instance->CCMR1 |= TIM_CCMR1_OC2PE;
 80023ac:	68fb      	ldr	r3, [r7, #12]
 80023ae:	681b      	ldr	r3, [r3, #0]
 80023b0:	699a      	ldr	r2, [r3, #24]
 80023b2:	68fb      	ldr	r3, [r7, #12]
 80023b4:	681b      	ldr	r3, [r3, #0]
 80023b6:	f442 6200 	orr.w	r2, r2, #2048	; 0x800
 80023ba:	619a      	str	r2, [r3, #24]

      /* Configure the Output Fast mode */
      htim->Instance->CCMR1 &= ~TIM_CCMR1_OC2FE;
 80023bc:	68fb      	ldr	r3, [r7, #12]
 80023be:	681b      	ldr	r3, [r3, #0]
 80023c0:	699a      	ldr	r2, [r3, #24]
 80023c2:	68fb      	ldr	r3, [r7, #12]
 80023c4:	681b      	ldr	r3, [r3, #0]
 80023c6:	f422 6280 	bic.w	r2, r2, #1024	; 0x400
 80023ca:	619a      	str	r2, [r3, #24]
      htim->Instance->CCMR1 |= sConfig->OCFastMode << 8U;
 80023cc:	68fb      	ldr	r3, [r7, #12]
 80023ce:	681b      	ldr	r3, [r3, #0]
 80023d0:	6999      	ldr	r1, [r3, #24]
 80023d2:	68bb      	ldr	r3, [r7, #8]
 80023d4:	691b      	ldr	r3, [r3, #16]
 80023d6:	021a      	lsls	r2, r3, #8
 80023d8:	68fb      	ldr	r3, [r7, #12]
 80023da:	681b      	ldr	r3, [r3, #0]
 80023dc:	430a      	orrs	r2, r1
 80023de:	619a      	str	r2, [r3, #24]
      break;
 80023e0:	e041      	b.n	8002466 <HAL_TIM_PWM_ConfigChannel+0x172>
    {
      /* Check the parameters */
      assert_param(IS_TIM_CC3_INSTANCE(htim->Instance));

      /* Configure the Channel 3 in PWM mode */
      TIM_OC3_SetConfig(htim->Instance, sConfig);
 80023e2:	68fb      	ldr	r3, [r7, #12]
 80023e4:	681b      	ldr	r3, [r3, #0]
 80023e6:	68b9      	ldr	r1, [r7, #8]
 80023e8:	4618      	mov	r0, r3
 80023ea:	f000 fa33 	bl	8002854 <TIM_OC3_SetConfig>

      /* Set the Preload enable bit for channel3 */
      htim->Instance->CCMR2 |= TIM_CCMR2_OC3PE;
 80023ee:	68fb      	ldr	r3, [r7, #12]
 80023f0:	681b      	ldr	r3, [r3, #0]
 80023f2:	69da      	ldr	r2, [r3, #28]
 80023f4:	68fb      	ldr	r3, [r7, #12]
 80023f6:	681b      	ldr	r3, [r3, #0]
 80023f8:	f042 0208 	orr.w	r2, r2, #8
 80023fc:	61da      	str	r2, [r3, #28]

      /* Configure the Output Fast mode */
      htim->Instance->CCMR2 &= ~TIM_CCMR2_OC3FE;
 80023fe:	68fb      	ldr	r3, [r7, #12]
 8002400:	681b      	ldr	r3, [r3, #0]
 8002402:	69da      	ldr	r2, [r3, #28]
 8002404:	68fb      	ldr	r3, [r7, #12]
 8002406:	681b      	ldr	r3, [r3, #0]
 8002408:	f022 0204 	bic.w	r2, r2, #4
 800240c:	61da      	str	r2, [r3, #28]
      htim->Instance->CCMR2 |= sConfig->OCFastMode;
 800240e:	68fb      	ldr	r3, [r7, #12]
 8002410:	681b      	ldr	r3, [r3, #0]
 8002412:	69d9      	ldr	r1, [r3, #28]
 8002414:	68bb      	ldr	r3, [r7, #8]
 8002416:	691a      	ldr	r2, [r3, #16]
 8002418:	68fb      	ldr	r3, [r7, #12]
 800241a:	681b      	ldr	r3, [r3, #0]
 800241c:	430a      	orrs	r2, r1
 800241e:	61da      	str	r2, [r3, #28]
      break;
 8002420:	e021      	b.n	8002466 <HAL_TIM_PWM_ConfigChannel+0x172>
    {
      /* Check the parameters */
      assert_param(IS_TIM_CC4_INSTANCE(htim->Instance));

      /* Configure the Channel 4 in PWM mode */
      TIM_OC4_SetConfig(htim->Instance, sConfig);
 8002422:	68fb      	ldr	r3, [r7, #12]
 8002424:	681b      	ldr	r3, [r3, #0]
 8002426:	68b9      	ldr	r1, [r7, #8]
 8002428:	4618      	mov	r0, r3
 800242a:	f000 fa7d 	bl	8002928 <TIM_OC4_SetConfig>

      /* Set the Preload enable bit for channel4 */
      htim->Instance->CCMR2 |= TIM_CCMR2_OC4PE;
 800242e:	68fb      	ldr	r3, [r7, #12]
 8002430:	681b      	ldr	r3, [r3, #0]
 8002432:	69da      	ldr	r2, [r3, #28]
 8002434:	68fb      	ldr	r3, [r7, #12]
 8002436:	681b      	ldr	r3, [r3, #0]
 8002438:	f442 6200 	orr.w	r2, r2, #2048	; 0x800
 800243c:	61da      	str	r2, [r3, #28]

      /* Configure the Output Fast mode */
      htim->Instance->CCMR2 &= ~TIM_CCMR2_OC4FE;
 800243e:	68fb      	ldr	r3, [r7, #12]
 8002440:	681b      	ldr	r3, [r3, #0]
 8002442:	69da      	ldr	r2, [r3, #28]
 8002444:	68fb      	ldr	r3, [r7, #12]
 8002446:	681b      	ldr	r3, [r3, #0]
 8002448:	f422 6280 	bic.w	r2, r2, #1024	; 0x400
 800244c:	61da      	str	r2, [r3, #28]
      htim->Instance->CCMR2 |= sConfig->OCFastMode << 8U;
 800244e:	68fb      	ldr	r3, [r7, #12]
 8002450:	681b      	ldr	r3, [r3, #0]
 8002452:	69d9      	ldr	r1, [r3, #28]
 8002454:	68bb      	ldr	r3, [r7, #8]
 8002456:	691b      	ldr	r3, [r3, #16]
 8002458:	021a      	lsls	r2, r3, #8
 800245a:	68fb      	ldr	r3, [r7, #12]
 800245c:	681b      	ldr	r3, [r3, #0]
 800245e:	430a      	orrs	r2, r1
 8002460:	61da      	str	r2, [r3, #28]
      break;
 8002462:	e000      	b.n	8002466 <HAL_TIM_PWM_ConfigChannel+0x172>
    }

    default:
      break;
 8002464:	bf00      	nop
  }

  htim->State = HAL_TIM_STATE_READY;
 8002466:	68fb      	ldr	r3, [r7, #12]
 8002468:	2201      	movs	r2, #1
 800246a:	f883 203d 	strb.w	r2, [r3, #61]	; 0x3d

  __HAL_UNLOCK(htim);
 800246e:	68fb      	ldr	r3, [r7, #12]
 8002470:	2200      	movs	r2, #0
 8002472:	f883 203c 	strb.w	r2, [r3, #60]	; 0x3c

  return HAL_OK;
 8002476:	2300      	movs	r3, #0
}
 8002478:	4618      	mov	r0, r3
 800247a:	3710      	adds	r7, #16
 800247c:	46bd      	mov	sp, r7
 800247e:	bd80      	pop	{r7, pc}

08002480 <HAL_TIM_ConfigClockSource>:
  * @param  sClockSourceConfig pointer to a TIM_ClockConfigTypeDef structure that
  *         contains the clock source information for the TIM peripheral.
  * @retval HAL status
  */
HAL_StatusTypeDef HAL_TIM_ConfigClockSource(TIM_HandleTypeDef *htim, TIM_ClockConfigTypeDef *sClockSourceConfig)
{
 8002480:	b580      	push	{r7, lr}
 8002482:	b084      	sub	sp, #16
 8002484:	af00      	add	r7, sp, #0
 8002486:	6078      	str	r0, [r7, #4]
 8002488:	6039      	str	r1, [r7, #0]
  uint32_t tmpsmcr;

  /* Process Locked */
  __HAL_LOCK(htim);
 800248a:	687b      	ldr	r3, [r7, #4]
 800248c:	f893 303c 	ldrb.w	r3, [r3, #60]	; 0x3c
 8002490:	2b01      	cmp	r3, #1
 8002492:	d101      	bne.n	8002498 <HAL_TIM_ConfigClockSource+0x18>
 8002494:	2302      	movs	r3, #2
 8002496:	e0a6      	b.n	80025e6 <HAL_TIM_ConfigClockSource+0x166>
 8002498:	687b      	ldr	r3, [r7, #4]
 800249a:	2201      	movs	r2, #1
 800249c:	f883 203c 	strb.w	r2, [r3, #60]	; 0x3c

  htim->State = HAL_TIM_STATE_BUSY;
 80024a0:	687b      	ldr	r3, [r7, #4]
 80024a2:	2202      	movs	r2, #2
 80024a4:	f883 203d 	strb.w	r2, [r3, #61]	; 0x3d

  /* Check the parameters */
  assert_param(IS_TIM_CLOCKSOURCE(sClockSourceConfig->ClockSource));

  /* Reset the SMS, TS, ECE, ETPS and ETRF bits */
  tmpsmcr = htim->Instance->SMCR;
 80024a8:	687b      	ldr	r3, [r7, #4]
 80024aa:	681b      	ldr	r3, [r3, #0]
 80024ac:	689b      	ldr	r3, [r3, #8]
 80024ae:	60fb      	str	r3, [r7, #12]
  tmpsmcr &= ~(TIM_SMCR_SMS | TIM_SMCR_TS);
 80024b0:	68fb      	ldr	r3, [r7, #12]
 80024b2:	f023 0377 	bic.w	r3, r3, #119	; 0x77
 80024b6:	60fb      	str	r3, [r7, #12]
  tmpsmcr &= ~(TIM_SMCR_ETF | TIM_SMCR_ETPS | TIM_SMCR_ECE | TIM_SMCR_ETP);
 80024b8:	68fb      	ldr	r3, [r7, #12]
 80024ba:	f423 437f 	bic.w	r3, r3, #65280	; 0xff00
 80024be:	60fb      	str	r3, [r7, #12]
  htim->Instance->SMCR = tmpsmcr;
 80024c0:	687b      	ldr	r3, [r7, #4]
 80024c2:	681b      	ldr	r3, [r3, #0]
 80024c4:	68fa      	ldr	r2, [r7, #12]
 80024c6:	609a      	str	r2, [r3, #8]

  switch (sClockSourceConfig->ClockSource)
 80024c8:	683b      	ldr	r3, [r7, #0]
 80024ca:	681b      	ldr	r3, [r3, #0]
 80024cc:	2b40      	cmp	r3, #64	; 0x40
 80024ce:	d067      	beq.n	80025a0 <HAL_TIM_ConfigClockSource+0x120>
 80024d0:	2b40      	cmp	r3, #64	; 0x40
 80024d2:	d80b      	bhi.n	80024ec <HAL_TIM_ConfigClockSource+0x6c>
 80024d4:	2b10      	cmp	r3, #16
 80024d6:	d073      	beq.n	80025c0 <HAL_TIM_ConfigClockSource+0x140>
 80024d8:	2b10      	cmp	r3, #16
 80024da:	d802      	bhi.n	80024e2 <HAL_TIM_ConfigClockSource+0x62>
 80024dc:	2b00      	cmp	r3, #0
 80024de:	d06f      	beq.n	80025c0 <HAL_TIM_ConfigClockSource+0x140>
      TIM_ITRx_SetConfig(htim->Instance, sClockSourceConfig->ClockSource);
      break;
    }

    default:
      break;
 80024e0:	e078      	b.n	80025d4 <HAL_TIM_ConfigClockSource+0x154>
  switch (sClockSourceConfig->ClockSource)
 80024e2:	2b20      	cmp	r3, #32
 80024e4:	d06c      	beq.n	80025c0 <HAL_TIM_ConfigClockSource+0x140>
 80024e6:	2b30      	cmp	r3, #48	; 0x30
 80024e8:	d06a      	beq.n	80025c0 <HAL_TIM_ConfigClockSource+0x140>
      break;
 80024ea:	e073      	b.n	80025d4 <HAL_TIM_ConfigClockSource+0x154>
  switch (sClockSourceConfig->ClockSource)
 80024ec:	2b70      	cmp	r3, #112	; 0x70
 80024ee:	d00d      	beq.n	800250c <HAL_TIM_ConfigClockSource+0x8c>
 80024f0:	2b70      	cmp	r3, #112	; 0x70
 80024f2:	d804      	bhi.n	80024fe <HAL_TIM_ConfigClockSource+0x7e>
 80024f4:	2b50      	cmp	r3, #80	; 0x50
 80024f6:	d033      	beq.n	8002560 <HAL_TIM_ConfigClockSource+0xe0>
 80024f8:	2b60      	cmp	r3, #96	; 0x60
 80024fa:	d041      	beq.n	8002580 <HAL_TIM_ConfigClockSource+0x100>
      break;
 80024fc:	e06a      	b.n	80025d4 <HAL_TIM_ConfigClockSource+0x154>
  switch (sClockSourceConfig->ClockSource)
 80024fe:	f5b3 5f80 	cmp.w	r3, #4096	; 0x1000
 8002502:	d066      	beq.n	80025d2 <HAL_TIM_ConfigClockSource+0x152>
 8002504:	f5b3 5f00 	cmp.w	r3, #8192	; 0x2000
 8002508:	d017      	beq.n	800253a <HAL_TIM_ConfigClockSource+0xba>
      break;
 800250a:	e063      	b.n	80025d4 <HAL_TIM_ConfigClockSource+0x154>
      TIM_ETR_SetConfig(htim->Instance,
 800250c:	687b      	ldr	r3, [r7, #4]
 800250e:	6818      	ldr	r0, [r3, #0]
 8002510:	683b      	ldr	r3, [r7, #0]
 8002512:	6899      	ldr	r1, [r3, #8]
 8002514:	683b      	ldr	r3, [r7, #0]
 8002516:	685a      	ldr	r2, [r3, #4]
 8002518:	683b      	ldr	r3, [r7, #0]
 800251a:	68db      	ldr	r3, [r3, #12]
 800251c:	f000 fac9 	bl	8002ab2 <TIM_ETR_SetConfig>
      tmpsmcr = htim->Instance->SMCR;
 8002520:	687b      	ldr	r3, [r7, #4]
 8002522:	681b      	ldr	r3, [r3, #0]
 8002524:	689b      	ldr	r3, [r3, #8]
 8002526:	60fb      	str	r3, [r7, #12]
      tmpsmcr |= (TIM_SLAVEMODE_EXTERNAL1 | TIM_CLOCKSOURCE_ETRMODE1);
 8002528:	68fb      	ldr	r3, [r7, #12]
 800252a:	f043 0377 	orr.w	r3, r3, #119	; 0x77
 800252e:	60fb      	str	r3, [r7, #12]
      htim->Instance->SMCR = tmpsmcr;
 8002530:	687b      	ldr	r3, [r7, #4]
 8002532:	681b      	ldr	r3, [r3, #0]
 8002534:	68fa      	ldr	r2, [r7, #12]
 8002536:	609a      	str	r2, [r3, #8]
      break;
 8002538:	e04c      	b.n	80025d4 <HAL_TIM_ConfigClockSource+0x154>
      TIM_ETR_SetConfig(htim->Instance,
 800253a:	687b      	ldr	r3, [r7, #4]
 800253c:	6818      	ldr	r0, [r3, #0]
 800253e:	683b      	ldr	r3, [r7, #0]
 8002540:	6899      	ldr	r1, [r3, #8]
 8002542:	683b      	ldr	r3, [r7, #0]
 8002544:	685a      	ldr	r2, [r3, #4]
 8002546:	683b      	ldr	r3, [r7, #0]
 8002548:	68db      	ldr	r3, [r3, #12]
 800254a:	f000 fab2 	bl	8002ab2 <TIM_ETR_SetConfig>
      htim->Instance->SMCR |= TIM_SMCR_ECE;
 800254e:	687b      	ldr	r3, [r7, #4]
 8002550:	681b      	ldr	r3, [r3, #0]
 8002552:	689a      	ldr	r2, [r3, #8]
 8002554:	687b      	ldr	r3, [r7, #4]
 8002556:	681b      	ldr	r3, [r3, #0]
 8002558:	f442 4280 	orr.w	r2, r2, #16384	; 0x4000
 800255c:	609a      	str	r2, [r3, #8]
      break;
 800255e:	e039      	b.n	80025d4 <HAL_TIM_ConfigClockSource+0x154>
      TIM_TI1_ConfigInputStage(htim->Instance,
 8002560:	687b      	ldr	r3, [r7, #4]
 8002562:	6818      	ldr	r0, [r3, #0]
 8002564:	683b      	ldr	r3, [r7, #0]
 8002566:	6859      	ldr	r1, [r3, #4]
 8002568:	683b      	ldr	r3, [r7, #0]
 800256a:	68db      	ldr	r3, [r3, #12]
 800256c:	461a      	mov	r2, r3
 800256e:	f000 fa29 	bl	80029c4 <TIM_TI1_ConfigInputStage>
      TIM_ITRx_SetConfig(htim->Instance, TIM_CLOCKSOURCE_TI1);
 8002572:	687b      	ldr	r3, [r7, #4]
 8002574:	681b      	ldr	r3, [r3, #0]
 8002576:	2150      	movs	r1, #80	; 0x50
 8002578:	4618      	mov	r0, r3
 800257a:	f000 fa80 	bl	8002a7e <TIM_ITRx_SetConfig>
      break;
 800257e:	e029      	b.n	80025d4 <HAL_TIM_ConfigClockSource+0x154>
      TIM_TI2_ConfigInputStage(htim->Instance,
 8002580:	687b      	ldr	r3, [r7, #4]
 8002582:	6818      	ldr	r0, [r3, #0]
 8002584:	683b      	ldr	r3, [r7, #0]
 8002586:	6859      	ldr	r1, [r3, #4]
 8002588:	683b      	ldr	r3, [r7, #0]
 800258a:	68db      	ldr	r3, [r3, #12]
 800258c:	461a      	mov	r2, r3
 800258e:	f000 fa47 	bl	8002a20 <TIM_TI2_ConfigInputStage>
      TIM_ITRx_SetConfig(htim->Instance, TIM_CLOCKSOURCE_TI2);
 8002592:	687b      	ldr	r3, [r7, #4]
 8002594:	681b      	ldr	r3, [r3, #0]
 8002596:	2160      	movs	r1, #96	; 0x60
 8002598:	4618      	mov	r0, r3
 800259a:	f000 fa70 	bl	8002a7e <TIM_ITRx_SetConfig>
      break;
 800259e:	e019      	b.n	80025d4 <HAL_TIM_ConfigClockSource+0x154>
      TIM_TI1_ConfigInputStage(htim->Instance,
 80025a0:	687b      	ldr	r3, [r7, #4]
 80025a2:	6818      	ldr	r0, [r3, #0]
 80025a4:	683b      	ldr	r3, [r7, #0]
 80025a6:	6859      	ldr	r1, [r3, #4]
 80025a8:	683b      	ldr	r3, [r7, #0]
 80025aa:	68db      	ldr	r3, [r3, #12]
 80025ac:	461a      	mov	r2, r3
 80025ae:	f000 fa09 	bl	80029c4 <TIM_TI1_ConfigInputStage>
      TIM_ITRx_SetConfig(htim->Instance, TIM_CLOCKSOURCE_TI1ED);
 80025b2:	687b      	ldr	r3, [r7, #4]
 80025b4:	681b      	ldr	r3, [r3, #0]
 80025b6:	2140      	movs	r1, #64	; 0x40
 80025b8:	4618      	mov	r0, r3
 80025ba:	f000 fa60 	bl	8002a7e <TIM_ITRx_SetConfig>
      break;
 80025be:	e009      	b.n	80025d4 <HAL_TIM_ConfigClockSource+0x154>
      TIM_ITRx_SetConfig(htim->Instance, sClockSourceConfig->ClockSource);
 80025c0:	687b      	ldr	r3, [r7, #4]
 80025c2:	681a      	ldr	r2, [r3, #0]
 80025c4:	683b      	ldr	r3, [r7, #0]
 80025c6:	681b      	ldr	r3, [r3, #0]
 80025c8:	4619      	mov	r1, r3
 80025ca:	4610      	mov	r0, r2
 80025cc:	f000 fa57 	bl	8002a7e <TIM_ITRx_SetConfig>
      break;
 80025d0:	e000      	b.n	80025d4 <HAL_TIM_ConfigClockSource+0x154>
      break;
 80025d2:	bf00      	nop
  }
  htim->State = HAL_TIM_STATE_READY;
 80025d4:	687b      	ldr	r3, [r7, #4]
 80025d6:	2201      	movs	r2, #1
 80025d8:	f883 203d 	strb.w	r2, [r3, #61]	; 0x3d

  __HAL_UNLOCK(htim);
 80025dc:	687b      	ldr	r3, [r7, #4]
 80025de:	2200      	movs	r2, #0
 80025e0:	f883 203c 	strb.w	r2, [r3, #60]	; 0x3c

  return HAL_OK;
 80025e4:	2300      	movs	r3, #0
}
 80025e6:	4618      	mov	r0, r3
 80025e8:	3710      	adds	r7, #16
 80025ea:	46bd      	mov	sp, r7
 80025ec:	bd80      	pop	{r7, pc}
	...

080025f0 <TIM_Base_SetConfig>:
  * @param  TIMx TIM peripheral
  * @param  Structure TIM Base configuration structure
  * @retval None
  */
void TIM_Base_SetConfig(TIM_TypeDef *TIMx, TIM_Base_InitTypeDef *Structure)
{
 80025f0:	b480      	push	{r7}
 80025f2:	b085      	sub	sp, #20
 80025f4:	af00      	add	r7, sp, #0
 80025f6:	6078      	str	r0, [r7, #4]
 80025f8:	6039      	str	r1, [r7, #0]
  uint32_t tmpcr1;
  tmpcr1 = TIMx->CR1;
 80025fa:	687b      	ldr	r3, [r7, #4]
 80025fc:	681b      	ldr	r3, [r3, #0]
 80025fe:	60fb      	str	r3, [r7, #12]

  /* Set TIM Time Base Unit parameters ---------------------------------------*/
  if (IS_TIM_COUNTER_MODE_SELECT_INSTANCE(TIMx))
 8002600:	687b      	ldr	r3, [r7, #4]
 8002602:	4a29      	ldr	r2, [pc, #164]	; (80026a8 <TIM_Base_SetConfig+0xb8>)
 8002604:	4293      	cmp	r3, r2
 8002606:	d00b      	beq.n	8002620 <TIM_Base_SetConfig+0x30>
 8002608:	687b      	ldr	r3, [r7, #4]
 800260a:	f1b3 4f80 	cmp.w	r3, #1073741824	; 0x40000000
 800260e:	d007      	beq.n	8002620 <TIM_Base_SetConfig+0x30>
 8002610:	687b      	ldr	r3, [r7, #4]
 8002612:	4a26      	ldr	r2, [pc, #152]	; (80026ac <TIM_Base_SetConfig+0xbc>)
 8002614:	4293      	cmp	r3, r2
 8002616:	d003      	beq.n	8002620 <TIM_Base_SetConfig+0x30>
 8002618:	687b      	ldr	r3, [r7, #4]
 800261a:	4a25      	ldr	r2, [pc, #148]	; (80026b0 <TIM_Base_SetConfig+0xc0>)
 800261c:	4293      	cmp	r3, r2
 800261e:	d108      	bne.n	8002632 <TIM_Base_SetConfig+0x42>
  {
    /* Select the Counter Mode */
    tmpcr1 &= ~(TIM_CR1_DIR | TIM_CR1_CMS);
 8002620:	68fb      	ldr	r3, [r7, #12]
 8002622:	f023 0370 	bic.w	r3, r3, #112	; 0x70
 8002626:	60fb      	str	r3, [r7, #12]
    tmpcr1 |= Structure->CounterMode;
 8002628:	683b      	ldr	r3, [r7, #0]
 800262a:	685b      	ldr	r3, [r3, #4]
 800262c:	68fa      	ldr	r2, [r7, #12]
 800262e:	4313      	orrs	r3, r2
 8002630:	60fb      	str	r3, [r7, #12]
  }

  if (IS_TIM_CLOCK_DIVISION_INSTANCE(TIMx))
 8002632:	687b      	ldr	r3, [r7, #4]
 8002634:	4a1c      	ldr	r2, [pc, #112]	; (80026a8 <TIM_Base_SetConfig+0xb8>)
 8002636:	4293      	cmp	r3, r2
 8002638:	d00b      	beq.n	8002652 <TIM_Base_SetConfig+0x62>
 800263a:	687b      	ldr	r3, [r7, #4]
 800263c:	f1b3 4f80 	cmp.w	r3, #1073741824	; 0x40000000
 8002640:	d007      	beq.n	8002652 <TIM_Base_SetConfig+0x62>
 8002642:	687b      	ldr	r3, [r7, #4]
 8002644:	4a19      	ldr	r2, [pc, #100]	; (80026ac <TIM_Base_SetConfig+0xbc>)
 8002646:	4293      	cmp	r3, r2
 8002648:	d003      	beq.n	8002652 <TIM_Base_SetConfig+0x62>
 800264a:	687b      	ldr	r3, [r7, #4]
 800264c:	4a18      	ldr	r2, [pc, #96]	; (80026b0 <TIM_Base_SetConfig+0xc0>)
 800264e:	4293      	cmp	r3, r2
 8002650:	d108      	bne.n	8002664 <TIM_Base_SetConfig+0x74>
  {
    /* Set the clock division */
    tmpcr1 &= ~TIM_CR1_CKD;
 8002652:	68fb      	ldr	r3, [r7, #12]
 8002654:	f423 7340 	bic.w	r3, r3, #768	; 0x300
 8002658:	60fb      	str	r3, [r7, #12]
    tmpcr1 |= (uint32_t)Structure->ClockDivision;
 800265a:	683b      	ldr	r3, [r7, #0]
 800265c:	68db      	ldr	r3, [r3, #12]
 800265e:	68fa      	ldr	r2, [r7, #12]
 8002660:	4313      	orrs	r3, r2
 8002662:	60fb      	str	r3, [r7, #12]
  }

  /* Set the auto-reload preload */
  MODIFY_REG(tmpcr1, TIM_CR1_ARPE, Structure->AutoReloadPreload);
 8002664:	68fb      	ldr	r3, [r7, #12]
 8002666:	f023 0280 	bic.w	r2, r3, #128	; 0x80
 800266a:	683b      	ldr	r3, [r7, #0]
 800266c:	695b      	ldr	r3, [r3, #20]
 800266e:	4313      	orrs	r3, r2
 8002670:	60fb      	str	r3, [r7, #12]

  TIMx->CR1 = tmpcr1;
 8002672:	687b      	ldr	r3, [r7, #4]
 8002674:	68fa      	ldr	r2, [r7, #12]
 8002676:	601a      	str	r2, [r3, #0]

  /* Set the Autoreload value */
  TIMx->ARR = (uint32_t)Structure->Period ;
 8002678:	683b      	ldr	r3, [r7, #0]
 800267a:	689a      	ldr	r2, [r3, #8]
 800267c:	687b      	ldr	r3, [r7, #4]
 800267e:	62da      	str	r2, [r3, #44]	; 0x2c

  /* Set the Prescaler value */
  TIMx->PSC = Structure->Prescaler;
 8002680:	683b      	ldr	r3, [r7, #0]
 8002682:	681a      	ldr	r2, [r3, #0]
 8002684:	687b      	ldr	r3, [r7, #4]
 8002686:	629a      	str	r2, [r3, #40]	; 0x28

  if (IS_TIM_REPETITION_COUNTER_INSTANCE(TIMx))
 8002688:	687b      	ldr	r3, [r7, #4]
 800268a:	4a07      	ldr	r2, [pc, #28]	; (80026a8 <TIM_Base_SetConfig+0xb8>)
 800268c:	4293      	cmp	r3, r2
 800268e:	d103      	bne.n	8002698 <TIM_Base_SetConfig+0xa8>
  {
    /* Set the Repetition Counter value */
    TIMx->RCR = Structure->RepetitionCounter;
 8002690:	683b      	ldr	r3, [r7, #0]
 8002692:	691a      	ldr	r2, [r3, #16]
 8002694:	687b      	ldr	r3, [r7, #4]
 8002696:	631a      	str	r2, [r3, #48]	; 0x30
  }

  /* Generate an update event to reload the Prescaler
     and the repetition counter (only for advanced timer) value immediately */
  TIMx->EGR = TIM_EGR_UG;
 8002698:	687b      	ldr	r3, [r7, #4]
 800269a:	2201      	movs	r2, #1
 800269c:	615a      	str	r2, [r3, #20]
}
 800269e:	bf00      	nop
 80026a0:	3714      	adds	r7, #20
 80026a2:	46bd      	mov	sp, r7
 80026a4:	bc80      	pop	{r7}
 80026a6:	4770      	bx	lr
 80026a8:	40012c00 	.word	0x40012c00
 80026ac:	40000400 	.word	0x40000400
 80026b0:	40000800 	.word	0x40000800

080026b4 <TIM_OC1_SetConfig>:
  * @param  TIMx to select the TIM peripheral
  * @param  OC_Config The ouput configuration structure
  * @retval None
  */
static void TIM_OC1_SetConfig(TIM_TypeDef *TIMx, TIM_OC_InitTypeDef *OC_Config)
{
 80026b4:	b480      	push	{r7}
 80026b6:	b087      	sub	sp, #28
 80026b8:	af00      	add	r7, sp, #0
 80026ba:	6078      	str	r0, [r7, #4]
 80026bc:	6039      	str	r1, [r7, #0]
  uint32_t tmpccmrx;
  uint32_t tmpccer;
  uint32_t tmpcr2;

  /* Disable the Channel 1: Reset the CC1E Bit */
  TIMx->CCER &= ~TIM_CCER_CC1E;
 80026be:	687b      	ldr	r3, [r7, #4]
 80026c0:	6a1b      	ldr	r3, [r3, #32]
 80026c2:	f023 0201 	bic.w	r2, r3, #1
 80026c6:	687b      	ldr	r3, [r7, #4]
 80026c8:	621a      	str	r2, [r3, #32]

  /* Get the TIMx CCER register value */
  tmpccer = TIMx->CCER;
 80026ca:	687b      	ldr	r3, [r7, #4]
 80026cc:	6a1b      	ldr	r3, [r3, #32]
 80026ce:	617b      	str	r3, [r7, #20]
  /* Get the TIMx CR2 register value */
  tmpcr2 =  TIMx->CR2;
 80026d0:	687b      	ldr	r3, [r7, #4]
 80026d2:	685b      	ldr	r3, [r3, #4]
 80026d4:	613b      	str	r3, [r7, #16]

  /* Get the TIMx CCMR1 register value */
  tmpccmrx = TIMx->CCMR1;
 80026d6:	687b      	ldr	r3, [r7, #4]
 80026d8:	699b      	ldr	r3, [r3, #24]
 80026da:	60fb      	str	r3, [r7, #12]

  /* Reset the Output Compare Mode Bits */
  tmpccmrx &= ~TIM_CCMR1_OC1M;
 80026dc:	68fb      	ldr	r3, [r7, #12]
 80026de:	f023 0370 	bic.w	r3, r3, #112	; 0x70
 80026e2:	60fb      	str	r3, [r7, #12]
  tmpccmrx &= ~TIM_CCMR1_CC1S;
 80026e4:	68fb      	ldr	r3, [r7, #12]
 80026e6:	f023 0303 	bic.w	r3, r3, #3
 80026ea:	60fb      	str	r3, [r7, #12]
  /* Select the Output Compare Mode */
  tmpccmrx |= OC_Config->OCMode;
 80026ec:	683b      	ldr	r3, [r7, #0]
 80026ee:	681b      	ldr	r3, [r3, #0]
 80026f0:	68fa      	ldr	r2, [r7, #12]
 80026f2:	4313      	orrs	r3, r2
 80026f4:	60fb      	str	r3, [r7, #12]

  /* Reset the Output Polarity level */
  tmpccer &= ~TIM_CCER_CC1P;
 80026f6:	697b      	ldr	r3, [r7, #20]
 80026f8:	f023 0302 	bic.w	r3, r3, #2
 80026fc:	617b      	str	r3, [r7, #20]
  /* Set the Output Compare Polarity */
  tmpccer |= OC_Config->OCPolarity;
 80026fe:	683b      	ldr	r3, [r7, #0]
 8002700:	689b      	ldr	r3, [r3, #8]
 8002702:	697a      	ldr	r2, [r7, #20]
 8002704:	4313      	orrs	r3, r2
 8002706:	617b      	str	r3, [r7, #20]

  if (IS_TIM_CCXN_INSTANCE(TIMx, TIM_CHANNEL_1))
 8002708:	687b      	ldr	r3, [r7, #4]
 800270a:	4a1c      	ldr	r2, [pc, #112]	; (800277c <TIM_OC1_SetConfig+0xc8>)
 800270c:	4293      	cmp	r3, r2
 800270e:	d10c      	bne.n	800272a <TIM_OC1_SetConfig+0x76>
  {
    /* Check parameters */
    assert_param(IS_TIM_OCN_POLARITY(OC_Config->OCNPolarity));

    /* Reset the Output N Polarity level */
    tmpccer &= ~TIM_CCER_CC1NP;
 8002710:	697b      	ldr	r3, [r7, #20]
 8002712:	f023 0308 	bic.w	r3, r3, #8
 8002716:	617b      	str	r3, [r7, #20]
    /* Set the Output N Polarity */
    tmpccer |= OC_Config->OCNPolarity;
 8002718:	683b      	ldr	r3, [r7, #0]
 800271a:	68db      	ldr	r3, [r3, #12]
 800271c:	697a      	ldr	r2, [r7, #20]
 800271e:	4313      	orrs	r3, r2
 8002720:	617b      	str	r3, [r7, #20]
    /* Reset the Output N State */
    tmpccer &= ~TIM_CCER_CC1NE;
 8002722:	697b      	ldr	r3, [r7, #20]
 8002724:	f023 0304 	bic.w	r3, r3, #4
 8002728:	617b      	str	r3, [r7, #20]
  }

  if (IS_TIM_BREAK_INSTANCE(TIMx))
 800272a:	687b      	ldr	r3, [r7, #4]
 800272c:	4a13      	ldr	r2, [pc, #76]	; (800277c <TIM_OC1_SetConfig+0xc8>)
 800272e:	4293      	cmp	r3, r2
 8002730:	d111      	bne.n	8002756 <TIM_OC1_SetConfig+0xa2>
    /* Check parameters */
    assert_param(IS_TIM_OCNIDLE_STATE(OC_Config->OCNIdleState));
    assert_param(IS_TIM_OCIDLE_STATE(OC_Config->OCIdleState));

    /* Reset the Output Compare and Output Compare N IDLE State */
    tmpcr2 &= ~TIM_CR2_OIS1;
 8002732:	693b      	ldr	r3, [r7, #16]
 8002734:	f423 7380 	bic.w	r3, r3, #256	; 0x100
 8002738:	613b      	str	r3, [r7, #16]
    tmpcr2 &= ~TIM_CR2_OIS1N;
 800273a:	693b      	ldr	r3, [r7, #16]
 800273c:	f423 7300 	bic.w	r3, r3, #512	; 0x200
 8002740:	613b      	str	r3, [r7, #16]
    /* Set the Output Idle state */
    tmpcr2 |= OC_Config->OCIdleState;
 8002742:	683b      	ldr	r3, [r7, #0]
 8002744:	695b      	ldr	r3, [r3, #20]
 8002746:	693a      	ldr	r2, [r7, #16]
 8002748:	4313      	orrs	r3, r2
 800274a:	613b      	str	r3, [r7, #16]
    /* Set the Output N Idle state */
    tmpcr2 |= OC_Config->OCNIdleState;
 800274c:	683b      	ldr	r3, [r7, #0]
 800274e:	699b      	ldr	r3, [r3, #24]
 8002750:	693a      	ldr	r2, [r7, #16]
 8002752:	4313      	orrs	r3, r2
 8002754:	613b      	str	r3, [r7, #16]
  }

  /* Write to TIMx CR2 */
  TIMx->CR2 = tmpcr2;
 8002756:	687b      	ldr	r3, [r7, #4]
 8002758:	693a      	ldr	r2, [r7, #16]
 800275a:	605a      	str	r2, [r3, #4]

  /* Write to TIMx CCMR1 */
  TIMx->CCMR1 = tmpccmrx;
 800275c:	687b      	ldr	r3, [r7, #4]
 800275e:	68fa      	ldr	r2, [r7, #12]
 8002760:	619a      	str	r2, [r3, #24]

  /* Set the Capture Compare Register value */
  TIMx->CCR1 = OC_Config->Pulse;
 8002762:	683b      	ldr	r3, [r7, #0]
 8002764:	685a      	ldr	r2, [r3, #4]
 8002766:	687b      	ldr	r3, [r7, #4]
 8002768:	635a      	str	r2, [r3, #52]	; 0x34

  /* Write to TIMx CCER */
  TIMx->CCER = tmpccer;
 800276a:	687b      	ldr	r3, [r7, #4]
 800276c:	697a      	ldr	r2, [r7, #20]
 800276e:	621a      	str	r2, [r3, #32]
}
 8002770:	bf00      	nop
 8002772:	371c      	adds	r7, #28
 8002774:	46bd      	mov	sp, r7
 8002776:	bc80      	pop	{r7}
 8002778:	4770      	bx	lr
 800277a:	bf00      	nop
 800277c:	40012c00 	.word	0x40012c00

08002780 <TIM_OC2_SetConfig>:
  * @param  TIMx to select the TIM peripheral
  * @param  OC_Config The ouput configuration structure
  * @retval None
  */
void TIM_OC2_SetConfig(TIM_TypeDef *TIMx, TIM_OC_InitTypeDef *OC_Config)
{
 8002780:	b480      	push	{r7}
 8002782:	b087      	sub	sp, #28
 8002784:	af00      	add	r7, sp, #0
 8002786:	6078      	str	r0, [r7, #4]
 8002788:	6039      	str	r1, [r7, #0]
  uint32_t tmpccmrx;
  uint32_t tmpccer;
  uint32_t tmpcr2;

  /* Disable the Channel 2: Reset the CC2E Bit */
  TIMx->CCER &= ~TIM_CCER_CC2E;
 800278a:	687b      	ldr	r3, [r7, #4]
 800278c:	6a1b      	ldr	r3, [r3, #32]
 800278e:	f023 0210 	bic.w	r2, r3, #16
 8002792:	687b      	ldr	r3, [r7, #4]
 8002794:	621a      	str	r2, [r3, #32]

  /* Get the TIMx CCER register value */
  tmpccer = TIMx->CCER;
 8002796:	687b      	ldr	r3, [r7, #4]
 8002798:	6a1b      	ldr	r3, [r3, #32]
 800279a:	617b      	str	r3, [r7, #20]
  /* Get the TIMx CR2 register value */
  tmpcr2 =  TIMx->CR2;
 800279c:	687b      	ldr	r3, [r7, #4]
 800279e:	685b      	ldr	r3, [r3, #4]
 80027a0:	613b      	str	r3, [r7, #16]

  /* Get the TIMx CCMR1 register value */
  tmpccmrx = TIMx->CCMR1;
 80027a2:	687b      	ldr	r3, [r7, #4]
 80027a4:	699b      	ldr	r3, [r3, #24]
 80027a6:	60fb      	str	r3, [r7, #12]

  /* Reset the Output Compare mode and Capture/Compare selection Bits */
  tmpccmrx &= ~TIM_CCMR1_OC2M;
 80027a8:	68fb      	ldr	r3, [r7, #12]
 80027aa:	f423 43e0 	bic.w	r3, r3, #28672	; 0x7000
 80027ae:	60fb      	str	r3, [r7, #12]
  tmpccmrx &= ~TIM_CCMR1_CC2S;
 80027b0:	68fb      	ldr	r3, [r7, #12]
 80027b2:	f423 7340 	bic.w	r3, r3, #768	; 0x300
 80027b6:	60fb      	str	r3, [r7, #12]

  /* Select the Output Compare Mode */
  tmpccmrx |= (OC_Config->OCMode << 8U);
 80027b8:	683b      	ldr	r3, [r7, #0]
 80027ba:	681b      	ldr	r3, [r3, #0]
 80027bc:	021b      	lsls	r3, r3, #8
 80027be:	68fa      	ldr	r2, [r7, #12]
 80027c0:	4313      	orrs	r3, r2
 80027c2:	60fb      	str	r3, [r7, #12]

  /* Reset the Output Polarity level */
  tmpccer &= ~TIM_CCER_CC2P;
 80027c4:	697b      	ldr	r3, [r7, #20]
 80027c6:	f023 0320 	bic.w	r3, r3, #32
 80027ca:	617b      	str	r3, [r7, #20]
  /* Set the Output Compare Polarity */
  tmpccer |= (OC_Config->OCPolarity << 4U);
 80027cc:	683b      	ldr	r3, [r7, #0]
 80027ce:	689b      	ldr	r3, [r3, #8]
 80027d0:	011b      	lsls	r3, r3, #4
 80027d2:	697a      	ldr	r2, [r7, #20]
 80027d4:	4313      	orrs	r3, r2
 80027d6:	617b      	str	r3, [r7, #20]

  if (IS_TIM_CCXN_INSTANCE(TIMx, TIM_CHANNEL_2))
 80027d8:	687b      	ldr	r3, [r7, #4]
 80027da:	4a1d      	ldr	r2, [pc, #116]	; (8002850 <TIM_OC2_SetConfig+0xd0>)
 80027dc:	4293      	cmp	r3, r2
 80027de:	d10d      	bne.n	80027fc <TIM_OC2_SetConfig+0x7c>
  {
    assert_param(IS_TIM_OCN_POLARITY(OC_Config->OCNPolarity));

    /* Reset the Output N Polarity level */
    tmpccer &= ~TIM_CCER_CC2NP;
 80027e0:	697b      	ldr	r3, [r7, #20]
 80027e2:	f023 0380 	bic.w	r3, r3, #128	; 0x80
 80027e6:	617b      	str	r3, [r7, #20]
    /* Set the Output N Polarity */
    tmpccer |= (OC_Config->OCNPolarity << 4U);
 80027e8:	683b      	ldr	r3, [r7, #0]
 80027ea:	68db      	ldr	r3, [r3, #12]
 80027ec:	011b      	lsls	r3, r3, #4
 80027ee:	697a      	ldr	r2, [r7, #20]
 80027f0:	4313      	orrs	r3, r2
 80027f2:	617b      	str	r3, [r7, #20]
    /* Reset the Output N State */
    tmpccer &= ~TIM_CCER_CC2NE;
 80027f4:	697b      	ldr	r3, [r7, #20]
 80027f6:	f023 0340 	bic.w	r3, r3, #64	; 0x40
 80027fa:	617b      	str	r3, [r7, #20]

  }

  if (IS_TIM_BREAK_INSTANCE(TIMx))
 80027fc:	687b      	ldr	r3, [r7, #4]
 80027fe:	4a14      	ldr	r2, [pc, #80]	; (8002850 <TIM_OC2_SetConfig+0xd0>)
 8002800:	4293      	cmp	r3, r2
 8002802:	d113      	bne.n	800282c <TIM_OC2_SetConfig+0xac>
    /* Check parameters */
    assert_param(IS_TIM_OCNIDLE_STATE(OC_Config->OCNIdleState));
    assert_param(IS_TIM_OCIDLE_STATE(OC_Config->OCIdleState));

    /* Reset the Output Compare and Output Compare N IDLE State */
    tmpcr2 &= ~TIM_CR2_OIS2;
 8002804:	693b      	ldr	r3, [r7, #16]
 8002806:	f423 6380 	bic.w	r3, r3, #1024	; 0x400
 800280a:	613b      	str	r3, [r7, #16]
    tmpcr2 &= ~TIM_CR2_OIS2N;
 800280c:	693b      	ldr	r3, [r7, #16]
 800280e:	f423 6300 	bic.w	r3, r3, #2048	; 0x800
 8002812:	613b      	str	r3, [r7, #16]
    /* Set the Output Idle state */
    tmpcr2 |= (OC_Config->OCIdleState << 2U);
 8002814:	683b      	ldr	r3, [r7, #0]
 8002816:	695b      	ldr	r3, [r3, #20]
 8002818:	009b      	lsls	r3, r3, #2
 800281a:	693a      	ldr	r2, [r7, #16]
 800281c:	4313      	orrs	r3, r2
 800281e:	613b      	str	r3, [r7, #16]
    /* Set the Output N Idle state */
    tmpcr2 |= (OC_Config->OCNIdleState << 2U);
 8002820:	683b      	ldr	r3, [r7, #0]
 8002822:	699b      	ldr	r3, [r3, #24]
 8002824:	009b      	lsls	r3, r3, #2
 8002826:	693a      	ldr	r2, [r7, #16]
 8002828:	4313      	orrs	r3, r2
 800282a:	613b      	str	r3, [r7, #16]
  }

  /* Write to TIMx CR2 */
  TIMx->CR2 = tmpcr2;
 800282c:	687b      	ldr	r3, [r7, #4]
 800282e:	693a      	ldr	r2, [r7, #16]
 8002830:	605a      	str	r2, [r3, #4]

  /* Write to TIMx CCMR1 */
  TIMx->CCMR1 = tmpccmrx;
 8002832:	687b      	ldr	r3, [r7, #4]
 8002834:	68fa      	ldr	r2, [r7, #12]
 8002836:	619a      	str	r2, [r3, #24]

  /* Set the Capture Compare Register value */
  TIMx->CCR2 = OC_Config->Pulse;
 8002838:	683b      	ldr	r3, [r7, #0]
 800283a:	685a      	ldr	r2, [r3, #4]
 800283c:	687b      	ldr	r3, [r7, #4]
 800283e:	639a      	str	r2, [r3, #56]	; 0x38

  /* Write to TIMx CCER */
  TIMx->CCER = tmpccer;
 8002840:	687b      	ldr	r3, [r7, #4]
 8002842:	697a      	ldr	r2, [r7, #20]
 8002844:	621a      	str	r2, [r3, #32]
}
 8002846:	bf00      	nop
 8002848:	371c      	adds	r7, #28
 800284a:	46bd      	mov	sp, r7
 800284c:	bc80      	pop	{r7}
 800284e:	4770      	bx	lr
 8002850:	40012c00 	.word	0x40012c00

08002854 <TIM_OC3_SetConfig>:
  * @param  TIMx to select the TIM peripheral
  * @param  OC_Config The ouput configuration structure
  * @retval None
  */
static void TIM_OC3_SetConfig(TIM_TypeDef *TIMx, TIM_OC_InitTypeDef *OC_Config)
{
 8002854:	b480      	push	{r7}
 8002856:	b087      	sub	sp, #28
 8002858:	af00      	add	r7, sp, #0
 800285a:	6078      	str	r0, [r7, #4]
 800285c:	6039      	str	r1, [r7, #0]
  uint32_t tmpccmrx;
  uint32_t tmpccer;
  uint32_t tmpcr2;

  /* Disable the Channel 3: Reset the CC2E Bit */
  TIMx->CCER &= ~TIM_CCER_CC3E;
 800285e:	687b      	ldr	r3, [r7, #4]
 8002860:	6a1b      	ldr	r3, [r3, #32]
 8002862:	f423 7280 	bic.w	r2, r3, #256	; 0x100
 8002866:	687b      	ldr	r3, [r7, #4]
 8002868:	621a      	str	r2, [r3, #32]

  /* Get the TIMx CCER register value */
  tmpccer = TIMx->CCER;
 800286a:	687b      	ldr	r3, [r7, #4]
 800286c:	6a1b      	ldr	r3, [r3, #32]
 800286e:	617b      	str	r3, [r7, #20]
  /* Get the TIMx CR2 register value */
  tmpcr2 =  TIMx->CR2;
 8002870:	687b      	ldr	r3, [r7, #4]
 8002872:	685b      	ldr	r3, [r3, #4]
 8002874:	613b      	str	r3, [r7, #16]

  /* Get the TIMx CCMR2 register value */
  tmpccmrx = TIMx->CCMR2;
 8002876:	687b      	ldr	r3, [r7, #4]
 8002878:	69db      	ldr	r3, [r3, #28]
 800287a:	60fb      	str	r3, [r7, #12]

  /* Reset the Output Compare mode and Capture/Compare selection Bits */
  tmpccmrx &= ~TIM_CCMR2_OC3M;
 800287c:	68fb      	ldr	r3, [r7, #12]
 800287e:	f023 0370 	bic.w	r3, r3, #112	; 0x70
 8002882:	60fb      	str	r3, [r7, #12]
  tmpccmrx &= ~TIM_CCMR2_CC3S;
 8002884:	68fb      	ldr	r3, [r7, #12]
 8002886:	f023 0303 	bic.w	r3, r3, #3
 800288a:	60fb      	str	r3, [r7, #12]
  /* Select the Output Compare Mode */
  tmpccmrx |= OC_Config->OCMode;
 800288c:	683b      	ldr	r3, [r7, #0]
 800288e:	681b      	ldr	r3, [r3, #0]
 8002890:	68fa      	ldr	r2, [r7, #12]
 8002892:	4313      	orrs	r3, r2
 8002894:	60fb      	str	r3, [r7, #12]

  /* Reset the Output Polarity level */
  tmpccer &= ~TIM_CCER_CC3P;
 8002896:	697b      	ldr	r3, [r7, #20]
 8002898:	f423 7300 	bic.w	r3, r3, #512	; 0x200
 800289c:	617b      	str	r3, [r7, #20]
  /* Set the Output Compare Polarity */
  tmpccer |= (OC_Config->OCPolarity << 8U);
 800289e:	683b      	ldr	r3, [r7, #0]
 80028a0:	689b      	ldr	r3, [r3, #8]
 80028a2:	021b      	lsls	r3, r3, #8
 80028a4:	697a      	ldr	r2, [r7, #20]
 80028a6:	4313      	orrs	r3, r2
 80028a8:	617b      	str	r3, [r7, #20]

  if (IS_TIM_CCXN_INSTANCE(TIMx, TIM_CHANNEL_3))
 80028aa:	687b      	ldr	r3, [r7, #4]
 80028ac:	4a1d      	ldr	r2, [pc, #116]	; (8002924 <TIM_OC3_SetConfig+0xd0>)
 80028ae:	4293      	cmp	r3, r2
 80028b0:	d10d      	bne.n	80028ce <TIM_OC3_SetConfig+0x7a>
  {
    assert_param(IS_TIM_OCN_POLARITY(OC_Config->OCNPolarity));

    /* Reset the Output N Polarity level */
    tmpccer &= ~TIM_CCER_CC3NP;
 80028b2:	697b      	ldr	r3, [r7, #20]
 80028b4:	f423 6300 	bic.w	r3, r3, #2048	; 0x800
 80028b8:	617b      	str	r3, [r7, #20]
    /* Set the Output N Polarity */
    tmpccer |= (OC_Config->OCNPolarity << 8U);
 80028ba:	683b      	ldr	r3, [r7, #0]
 80028bc:	68db      	ldr	r3, [r3, #12]
 80028be:	021b      	lsls	r3, r3, #8
 80028c0:	697a      	ldr	r2, [r7, #20]
 80028c2:	4313      	orrs	r3, r2
 80028c4:	617b      	str	r3, [r7, #20]
    /* Reset the Output N State */
    tmpccer &= ~TIM_CCER_CC3NE;
 80028c6:	697b      	ldr	r3, [r7, #20]
 80028c8:	f423 6380 	bic.w	r3, r3, #1024	; 0x400
 80028cc:	617b      	str	r3, [r7, #20]
  }

  if (IS_TIM_BREAK_INSTANCE(TIMx))
 80028ce:	687b      	ldr	r3, [r7, #4]
 80028d0:	4a14      	ldr	r2, [pc, #80]	; (8002924 <TIM_OC3_SetConfig+0xd0>)
 80028d2:	4293      	cmp	r3, r2
 80028d4:	d113      	bne.n	80028fe <TIM_OC3_SetConfig+0xaa>
    /* Check parameters */
    assert_param(IS_TIM_OCNIDLE_STATE(OC_Config->OCNIdleState));
    assert_param(IS_TIM_OCIDLE_STATE(OC_Config->OCIdleState));

    /* Reset the Output Compare and Output Compare N IDLE State */
    tmpcr2 &= ~TIM_CR2_OIS3;
 80028d6:	693b      	ldr	r3, [r7, #16]
 80028d8:	f423 5380 	bic.w	r3, r3, #4096	; 0x1000
 80028dc:	613b      	str	r3, [r7, #16]
    tmpcr2 &= ~TIM_CR2_OIS3N;
 80028de:	693b      	ldr	r3, [r7, #16]
 80028e0:	f423 5300 	bic.w	r3, r3, #8192	; 0x2000
 80028e4:	613b      	str	r3, [r7, #16]
    /* Set the Output Idle state */
    tmpcr2 |= (OC_Config->OCIdleState << 4U);
 80028e6:	683b      	ldr	r3, [r7, #0]
 80028e8:	695b      	ldr	r3, [r3, #20]
 80028ea:	011b      	lsls	r3, r3, #4
 80028ec:	693a      	ldr	r2, [r7, #16]
 80028ee:	4313      	orrs	r3, r2
 80028f0:	613b      	str	r3, [r7, #16]
    /* Set the Output N Idle state */
    tmpcr2 |= (OC_Config->OCNIdleState << 4U);
 80028f2:	683b      	ldr	r3, [r7, #0]
 80028f4:	699b      	ldr	r3, [r3, #24]
 80028f6:	011b      	lsls	r3, r3, #4
 80028f8:	693a      	ldr	r2, [r7, #16]
 80028fa:	4313      	orrs	r3, r2
 80028fc:	613b      	str	r3, [r7, #16]
  }

  /* Write to TIMx CR2 */
  TIMx->CR2 = tmpcr2;
 80028fe:	687b      	ldr	r3, [r7, #4]
 8002900:	693a      	ldr	r2, [r7, #16]
 8002902:	605a      	str	r2, [r3, #4]

  /* Write to TIMx CCMR2 */
  TIMx->CCMR2 = tmpccmrx;
 8002904:	687b      	ldr	r3, [r7, #4]
 8002906:	68fa      	ldr	r2, [r7, #12]
 8002908:	61da      	str	r2, [r3, #28]

  /* Set the Capture Compare Register value */
  TIMx->CCR3 = OC_Config->Pulse;
 800290a:	683b      	ldr	r3, [r7, #0]
 800290c:	685a      	ldr	r2, [r3, #4]
 800290e:	687b      	ldr	r3, [r7, #4]
 8002910:	63da      	str	r2, [r3, #60]	; 0x3c

  /* Write to TIMx CCER */
  TIMx->CCER = tmpccer;
 8002912:	687b      	ldr	r3, [r7, #4]
 8002914:	697a      	ldr	r2, [r7, #20]
 8002916:	621a      	str	r2, [r3, #32]
}
 8002918:	bf00      	nop
 800291a:	371c      	adds	r7, #28
 800291c:	46bd      	mov	sp, r7
 800291e:	bc80      	pop	{r7}
 8002920:	4770      	bx	lr
 8002922:	bf00      	nop
 8002924:	40012c00 	.word	0x40012c00

08002928 <TIM_OC4_SetConfig>:
  * @param  TIMx to select the TIM peripheral
  * @param  OC_Config The ouput configuration structure
  * @retval None
  */
static void TIM_OC4_SetConfig(TIM_TypeDef *TIMx, TIM_OC_InitTypeDef *OC_Config)
{
 8002928:	b480      	push	{r7}
 800292a:	b087      	sub	sp, #28
 800292c:	af00      	add	r7, sp, #0
 800292e:	6078      	str	r0, [r7, #4]
 8002930:	6039      	str	r1, [r7, #0]
  uint32_t tmpccmrx;
  uint32_t tmpccer;
  uint32_t tmpcr2;

  /* Disable the Channel 4: Reset the CC4E Bit */
  TIMx->CCER &= ~TIM_CCER_CC4E;
 8002932:	687b      	ldr	r3, [r7, #4]
 8002934:	6a1b      	ldr	r3, [r3, #32]
 8002936:	f423 5280 	bic.w	r2, r3, #4096	; 0x1000
 800293a:	687b      	ldr	r3, [r7, #4]
 800293c:	621a      	str	r2, [r3, #32]

  /* Get the TIMx CCER register value */
  tmpccer = TIMx->CCER;
 800293e:	687b      	ldr	r3, [r7, #4]
 8002940:	6a1b      	ldr	r3, [r3, #32]
 8002942:	613b      	str	r3, [r7, #16]
  /* Get the TIMx CR2 register value */
  tmpcr2 =  TIMx->CR2;
 8002944:	687b      	ldr	r3, [r7, #4]
 8002946:	685b      	ldr	r3, [r3, #4]
 8002948:	617b      	str	r3, [r7, #20]

  /* Get the TIMx CCMR2 register value */
  tmpccmrx = TIMx->CCMR2;
 800294a:	687b      	ldr	r3, [r7, #4]
 800294c:	69db      	ldr	r3, [r3, #28]
 800294e:	60fb      	str	r3, [r7, #12]

  /* Reset the Output Compare mode and Capture/Compare selection Bits */
  tmpccmrx &= ~TIM_CCMR2_OC4M;
 8002950:	68fb      	ldr	r3, [r7, #12]
 8002952:	f423 43e0 	bic.w	r3, r3, #28672	; 0x7000
 8002956:	60fb      	str	r3, [r7, #12]
  tmpccmrx &= ~TIM_CCMR2_CC4S;
 8002958:	68fb      	ldr	r3, [r7, #12]
 800295a:	f423 7340 	bic.w	r3, r3, #768	; 0x300
 800295e:	60fb      	str	r3, [r7, #12]

  /* Select the Output Compare Mode */
  tmpccmrx |= (OC_Config->OCMode << 8U);
 8002960:	683b      	ldr	r3, [r7, #0]
 8002962:	681b      	ldr	r3, [r3, #0]
 8002964:	021b      	lsls	r3, r3, #8
 8002966:	68fa      	ldr	r2, [r7, #12]
 8002968:	4313      	orrs	r3, r2
 800296a:	60fb      	str	r3, [r7, #12]

  /* Reset the Output Polarity level */
  tmpccer &= ~TIM_CCER_CC4P;
 800296c:	693b      	ldr	r3, [r7, #16]
 800296e:	f423 5300 	bic.w	r3, r3, #8192	; 0x2000
 8002972:	613b      	str	r3, [r7, #16]
  /* Set the Output Compare Polarity */
  tmpccer |= (OC_Config->OCPolarity << 12U);
 8002974:	683b      	ldr	r3, [r7, #0]
 8002976:	689b      	ldr	r3, [r3, #8]
 8002978:	031b      	lsls	r3, r3, #12
 800297a:	693a      	ldr	r2, [r7, #16]
 800297c:	4313      	orrs	r3, r2
 800297e:	613b      	str	r3, [r7, #16]

  if (IS_TIM_BREAK_INSTANCE(TIMx))
 8002980:	687b      	ldr	r3, [r7, #4]
 8002982:	4a0f      	ldr	r2, [pc, #60]	; (80029c0 <TIM_OC4_SetConfig+0x98>)
 8002984:	4293      	cmp	r3, r2
 8002986:	d109      	bne.n	800299c <TIM_OC4_SetConfig+0x74>
  {
    /* Check parameters */
    assert_param(IS_TIM_OCIDLE_STATE(OC_Config->OCIdleState));

    /* Reset the Output Compare IDLE State */
    tmpcr2 &= ~TIM_CR2_OIS4;
 8002988:	697b      	ldr	r3, [r7, #20]
 800298a:	f423 4380 	bic.w	r3, r3, #16384	; 0x4000
 800298e:	617b      	str	r3, [r7, #20]

    /* Set the Output Idle state */
    tmpcr2 |= (OC_Config->OCIdleState << 6U);
 8002990:	683b      	ldr	r3, [r7, #0]
 8002992:	695b      	ldr	r3, [r3, #20]
 8002994:	019b      	lsls	r3, r3, #6
 8002996:	697a      	ldr	r2, [r7, #20]
 8002998:	4313      	orrs	r3, r2
 800299a:	617b      	str	r3, [r7, #20]
  }

  /* Write to TIMx CR2 */
  TIMx->CR2 = tmpcr2;
 800299c:	687b      	ldr	r3, [r7, #4]
 800299e:	697a      	ldr	r2, [r7, #20]
 80029a0:	605a      	str	r2, [r3, #4]

  /* Write to TIMx CCMR2 */
  TIMx->CCMR2 = tmpccmrx;
 80029a2:	687b      	ldr	r3, [r7, #4]
 80029a4:	68fa      	ldr	r2, [r7, #12]
 80029a6:	61da      	str	r2, [r3, #28]

  /* Set the Capture Compare Register value */
  TIMx->CCR4 = OC_Config->Pulse;
 80029a8:	683b      	ldr	r3, [r7, #0]
 80029aa:	685a      	ldr	r2, [r3, #4]
 80029ac:	687b      	ldr	r3, [r7, #4]
 80029ae:	641a      	str	r2, [r3, #64]	; 0x40

  /* Write to TIMx CCER */
  TIMx->CCER = tmpccer;
 80029b0:	687b      	ldr	r3, [r7, #4]
 80029b2:	693a      	ldr	r2, [r7, #16]
 80029b4:	621a      	str	r2, [r3, #32]
}
 80029b6:	bf00      	nop
 80029b8:	371c      	adds	r7, #28
 80029ba:	46bd      	mov	sp, r7
 80029bc:	bc80      	pop	{r7}
 80029be:	4770      	bx	lr
 80029c0:	40012c00 	.word	0x40012c00

080029c4 <TIM_TI1_ConfigInputStage>:
  * @param  TIM_ICFilter Specifies the Input Capture Filter.
  *          This parameter must be a value between 0x00 and 0x0F.
  * @retval None
  */
static void TIM_TI1_ConfigInputStage(TIM_TypeDef *TIMx, uint32_t TIM_ICPolarity, uint32_t TIM_ICFilter)
{
 80029c4:	b480      	push	{r7}
 80029c6:	b087      	sub	sp, #28
 80029c8:	af00      	add	r7, sp, #0
 80029ca:	60f8      	str	r0, [r7, #12]
 80029cc:	60b9      	str	r1, [r7, #8]
 80029ce:	607a      	str	r2, [r7, #4]
  uint32_t tmpccmr1;
  uint32_t tmpccer;

  /* Disable the Channel 1: Reset the CC1E Bit */
  tmpccer = TIMx->CCER;
 80029d0:	68fb      	ldr	r3, [r7, #12]
 80029d2:	6a1b      	ldr	r3, [r3, #32]
 80029d4:	617b      	str	r3, [r7, #20]
  TIMx->CCER &= ~TIM_CCER_CC1E;
 80029d6:	68fb      	ldr	r3, [r7, #12]
 80029d8:	6a1b      	ldr	r3, [r3, #32]
 80029da:	f023 0201 	bic.w	r2, r3, #1
 80029de:	68fb      	ldr	r3, [r7, #12]
 80029e0:	621a      	str	r2, [r3, #32]
  tmpccmr1 = TIMx->CCMR1;
 80029e2:	68fb      	ldr	r3, [r7, #12]
 80029e4:	699b      	ldr	r3, [r3, #24]
 80029e6:	613b      	str	r3, [r7, #16]

  /* Set the filter */
  tmpccmr1 &= ~TIM_CCMR1_IC1F;
 80029e8:	693b      	ldr	r3, [r7, #16]
 80029ea:	f023 03f0 	bic.w	r3, r3, #240	; 0xf0
 80029ee:	613b      	str	r3, [r7, #16]
  tmpccmr1 |= (TIM_ICFilter << 4U);
 80029f0:	687b      	ldr	r3, [r7, #4]
 80029f2:	011b      	lsls	r3, r3, #4
 80029f4:	693a      	ldr	r2, [r7, #16]
 80029f6:	4313      	orrs	r3, r2
 80029f8:	613b      	str	r3, [r7, #16]

  /* Select the Polarity and set the CC1E Bit */
  tmpccer &= ~(TIM_CCER_CC1P | TIM_CCER_CC1NP);
 80029fa:	697b      	ldr	r3, [r7, #20]
 80029fc:	f023 030a 	bic.w	r3, r3, #10
 8002a00:	617b      	str	r3, [r7, #20]
  tmpccer |= TIM_ICPolarity;
 8002a02:	697a      	ldr	r2, [r7, #20]
 8002a04:	68bb      	ldr	r3, [r7, #8]
 8002a06:	4313      	orrs	r3, r2
 8002a08:	617b      	str	r3, [r7, #20]

  /* Write to TIMx CCMR1 and CCER registers */
  TIMx->CCMR1 = tmpccmr1;
 8002a0a:	68fb      	ldr	r3, [r7, #12]
 8002a0c:	693a      	ldr	r2, [r7, #16]
 8002a0e:	619a      	str	r2, [r3, #24]
  TIMx->CCER = tmpccer;
 8002a10:	68fb      	ldr	r3, [r7, #12]
 8002a12:	697a      	ldr	r2, [r7, #20]
 8002a14:	621a      	str	r2, [r3, #32]
}
 8002a16:	bf00      	nop
 8002a18:	371c      	adds	r7, #28
 8002a1a:	46bd      	mov	sp, r7
 8002a1c:	bc80      	pop	{r7}
 8002a1e:	4770      	bx	lr

08002a20 <TIM_TI2_ConfigInputStage>:
  * @param  TIM_ICFilter Specifies the Input Capture Filter.
  *          This parameter must be a value between 0x00 and 0x0F.
  * @retval None
  */
static void TIM_TI2_ConfigInputStage(TIM_TypeDef *TIMx, uint32_t TIM_ICPolarity, uint32_t TIM_ICFilter)
{
 8002a20:	b480      	push	{r7}
 8002a22:	b087      	sub	sp, #28
 8002a24:	af00      	add	r7, sp, #0
 8002a26:	60f8      	str	r0, [r7, #12]
 8002a28:	60b9      	str	r1, [r7, #8]
 8002a2a:	607a      	str	r2, [r7, #4]
  uint32_t tmpccmr1;
  uint32_t tmpccer;

  /* Disable the Channel 2: Reset the CC2E Bit */
  TIMx->CCER &= ~TIM_CCER_CC2E;
 8002a2c:	68fb      	ldr	r3, [r7, #12]
 8002a2e:	6a1b      	ldr	r3, [r3, #32]
 8002a30:	f023 0210 	bic.w	r2, r3, #16
 8002a34:	68fb      	ldr	r3, [r7, #12]
 8002a36:	621a      	str	r2, [r3, #32]
  tmpccmr1 = TIMx->CCMR1;
 8002a38:	68fb      	ldr	r3, [r7, #12]
 8002a3a:	699b      	ldr	r3, [r3, #24]
 8002a3c:	617b      	str	r3, [r7, #20]
  tmpccer = TIMx->CCER;
 8002a3e:	68fb      	ldr	r3, [r7, #12]
 8002a40:	6a1b      	ldr	r3, [r3, #32]
 8002a42:	613b      	str	r3, [r7, #16]

  /* Set the filter */
  tmpccmr1 &= ~TIM_CCMR1_IC2F;
 8002a44:	697b      	ldr	r3, [r7, #20]
 8002a46:	f423 4370 	bic.w	r3, r3, #61440	; 0xf000
 8002a4a:	617b      	str	r3, [r7, #20]
  tmpccmr1 |= (TIM_ICFilter << 12U);
 8002a4c:	687b      	ldr	r3, [r7, #4]
 8002a4e:	031b      	lsls	r3, r3, #12
 8002a50:	697a      	ldr	r2, [r7, #20]
 8002a52:	4313      	orrs	r3, r2
 8002a54:	617b      	str	r3, [r7, #20]

  /* Select the Polarity and set the CC2E Bit */
  tmpccer &= ~(TIM_CCER_CC2P | TIM_CCER_CC2NP);
 8002a56:	693b      	ldr	r3, [r7, #16]
 8002a58:	f023 03a0 	bic.w	r3, r3, #160	; 0xa0
 8002a5c:	613b      	str	r3, [r7, #16]
  tmpccer |= (TIM_ICPolarity << 4U);
 8002a5e:	68bb      	ldr	r3, [r7, #8]
 8002a60:	011b      	lsls	r3, r3, #4
 8002a62:	693a      	ldr	r2, [r7, #16]
 8002a64:	4313      	orrs	r3, r2
 8002a66:	613b      	str	r3, [r7, #16]

  /* Write to TIMx CCMR1 and CCER registers */
  TIMx->CCMR1 = tmpccmr1 ;
 8002a68:	68fb      	ldr	r3, [r7, #12]
 8002a6a:	697a      	ldr	r2, [r7, #20]
 8002a6c:	619a      	str	r2, [r3, #24]
  TIMx->CCER = tmpccer;
 8002a6e:	68fb      	ldr	r3, [r7, #12]
 8002a70:	693a      	ldr	r2, [r7, #16]
 8002a72:	621a      	str	r2, [r3, #32]
}
 8002a74:	bf00      	nop
 8002a76:	371c      	adds	r7, #28
 8002a78:	46bd      	mov	sp, r7
 8002a7a:	bc80      	pop	{r7}
 8002a7c:	4770      	bx	lr

08002a7e <TIM_ITRx_SetConfig>:
  *            @arg TIM_TS_TI2FP2: Filtered Timer Input 2
  *            @arg TIM_TS_ETRF: External Trigger input
  * @retval None
  */
static void TIM_ITRx_SetConfig(TIM_TypeDef *TIMx, uint32_t InputTriggerSource)
{
 8002a7e:	b480      	push	{r7}
 8002a80:	b085      	sub	sp, #20
 8002a82:	af00      	add	r7, sp, #0
 8002a84:	6078      	str	r0, [r7, #4]
 8002a86:	6039      	str	r1, [r7, #0]
  uint32_t tmpsmcr;

  /* Get the TIMx SMCR register value */
  tmpsmcr = TIMx->SMCR;
 8002a88:	687b      	ldr	r3, [r7, #4]
 8002a8a:	689b      	ldr	r3, [r3, #8]
 8002a8c:	60fb      	str	r3, [r7, #12]
  /* Reset the TS Bits */
  tmpsmcr &= ~TIM_SMCR_TS;
 8002a8e:	68fb      	ldr	r3, [r7, #12]
 8002a90:	f023 0370 	bic.w	r3, r3, #112	; 0x70
 8002a94:	60fb      	str	r3, [r7, #12]
  /* Set the Input Trigger source and the slave mode*/
  tmpsmcr |= (InputTriggerSource | TIM_SLAVEMODE_EXTERNAL1);
 8002a96:	683a      	ldr	r2, [r7, #0]
 8002a98:	68fb      	ldr	r3, [r7, #12]
 8002a9a:	4313      	orrs	r3, r2
 8002a9c:	f043 0307 	orr.w	r3, r3, #7
 8002aa0:	60fb      	str	r3, [r7, #12]
  /* Write to TIMx SMCR */
  TIMx->SMCR = tmpsmcr;
 8002aa2:	687b      	ldr	r3, [r7, #4]
 8002aa4:	68fa      	ldr	r2, [r7, #12]
 8002aa6:	609a      	str	r2, [r3, #8]
}
 8002aa8:	bf00      	nop
 8002aaa:	3714      	adds	r7, #20
 8002aac:	46bd      	mov	sp, r7
 8002aae:	bc80      	pop	{r7}
 8002ab0:	4770      	bx	lr

08002ab2 <TIM_ETR_SetConfig>:
  *          This parameter must be a value between 0x00 and 0x0F
  * @retval None
  */
void TIM_ETR_SetConfig(TIM_TypeDef *TIMx, uint32_t TIM_ExtTRGPrescaler,
                       uint32_t TIM_ExtTRGPolarity, uint32_t ExtTRGFilter)
{
 8002ab2:	b480      	push	{r7}
 8002ab4:	b087      	sub	sp, #28
 8002ab6:	af00      	add	r7, sp, #0
 8002ab8:	60f8      	str	r0, [r7, #12]
 8002aba:	60b9      	str	r1, [r7, #8]
 8002abc:	607a      	str	r2, [r7, #4]
 8002abe:	603b      	str	r3, [r7, #0]
  uint32_t tmpsmcr;

  tmpsmcr = TIMx->SMCR;
 8002ac0:	68fb      	ldr	r3, [r7, #12]
 8002ac2:	689b      	ldr	r3, [r3, #8]
 8002ac4:	617b      	str	r3, [r7, #20]

  /* Reset the ETR Bits */
  tmpsmcr &= ~(TIM_SMCR_ETF | TIM_SMCR_ETPS | TIM_SMCR_ECE | TIM_SMCR_ETP);
 8002ac6:	697b      	ldr	r3, [r7, #20]
 8002ac8:	f423 437f 	bic.w	r3, r3, #65280	; 0xff00
 8002acc:	617b      	str	r3, [r7, #20]

  /* Set the Prescaler, the Filter value and the Polarity */
  tmpsmcr |= (uint32_t)(TIM_ExtTRGPrescaler | (TIM_ExtTRGPolarity | (ExtTRGFilter << 8U)));
 8002ace:	683b      	ldr	r3, [r7, #0]
 8002ad0:	021a      	lsls	r2, r3, #8
 8002ad2:	687b      	ldr	r3, [r7, #4]
 8002ad4:	431a      	orrs	r2, r3
 8002ad6:	68bb      	ldr	r3, [r7, #8]
 8002ad8:	4313      	orrs	r3, r2
 8002ada:	697a      	ldr	r2, [r7, #20]
 8002adc:	4313      	orrs	r3, r2
 8002ade:	617b      	str	r3, [r7, #20]

  /* Write to TIMx SMCR */
  TIMx->SMCR = tmpsmcr;
 8002ae0:	68fb      	ldr	r3, [r7, #12]
 8002ae2:	697a      	ldr	r2, [r7, #20]
 8002ae4:	609a      	str	r2, [r3, #8]
}
 8002ae6:	bf00      	nop
 8002ae8:	371c      	adds	r7, #28
 8002aea:	46bd      	mov	sp, r7
 8002aec:	bc80      	pop	{r7}
 8002aee:	4770      	bx	lr

08002af0 <TIM_CCxChannelCmd>:
  * @param  ChannelState specifies the TIM Channel CCxE bit new state.
  *          This parameter can be: TIM_CCx_ENABLE or TIM_CCx_DISABLE.
  * @retval None
  */
void TIM_CCxChannelCmd(TIM_TypeDef *TIMx, uint32_t Channel, uint32_t ChannelState)
{
 8002af0:	b480      	push	{r7}
 8002af2:	b087      	sub	sp, #28
 8002af4:	af00      	add	r7, sp, #0
 8002af6:	60f8      	str	r0, [r7, #12]
 8002af8:	60b9      	str	r1, [r7, #8]
 8002afa:	607a      	str	r2, [r7, #4]

  /* Check the parameters */
  assert_param(IS_TIM_CC1_INSTANCE(TIMx));
  assert_param(IS_TIM_CHANNELS(Channel));

  tmp = TIM_CCER_CC1E << (Channel & 0x1FU); /* 0x1FU = 31 bits max shift */
 8002afc:	68bb      	ldr	r3, [r7, #8]
 8002afe:	f003 031f 	and.w	r3, r3, #31
 8002b02:	2201      	movs	r2, #1
 8002b04:	fa02 f303 	lsl.w	r3, r2, r3
 8002b08:	617b      	str	r3, [r7, #20]

  /* Reset the CCxE Bit */
  TIMx->CCER &= ~tmp;
 8002b0a:	68fb      	ldr	r3, [r7, #12]
 8002b0c:	6a1a      	ldr	r2, [r3, #32]
 8002b0e:	697b      	ldr	r3, [r7, #20]
 8002b10:	43db      	mvns	r3, r3
 8002b12:	401a      	ands	r2, r3
 8002b14:	68fb      	ldr	r3, [r7, #12]
 8002b16:	621a      	str	r2, [r3, #32]

  /* Set or reset the CCxE Bit */
  TIMx->CCER |= (uint32_t)(ChannelState << (Channel & 0x1FU)); /* 0x1FU = 31 bits max shift */
 8002b18:	68fb      	ldr	r3, [r7, #12]
 8002b1a:	6a1a      	ldr	r2, [r3, #32]
 8002b1c:	68bb      	ldr	r3, [r7, #8]
 8002b1e:	f003 031f 	and.w	r3, r3, #31
 8002b22:	6879      	ldr	r1, [r7, #4]
 8002b24:	fa01 f303 	lsl.w	r3, r1, r3
 8002b28:	431a      	orrs	r2, r3
 8002b2a:	68fb      	ldr	r3, [r7, #12]
 8002b2c:	621a      	str	r2, [r3, #32]
}
 8002b2e:	bf00      	nop
 8002b30:	371c      	adds	r7, #28
 8002b32:	46bd      	mov	sp, r7
 8002b34:	bc80      	pop	{r7}
 8002b36:	4770      	bx	lr

08002b38 <HAL_TIMEx_MasterConfigSynchronization>:
  *         mode.
  * @retval HAL status
  */
HAL_StatusTypeDef HAL_TIMEx_MasterConfigSynchronization(TIM_HandleTypeDef *htim,
                                                        TIM_MasterConfigTypeDef *sMasterConfig)
{
 8002b38:	b480      	push	{r7}
 8002b3a:	b085      	sub	sp, #20
 8002b3c:	af00      	add	r7, sp, #0
 8002b3e:	6078      	str	r0, [r7, #4]
 8002b40:	6039      	str	r1, [r7, #0]
  assert_param(IS_TIM_SYNCHRO_INSTANCE(htim->Instance));
  assert_param(IS_TIM_TRGO_SOURCE(sMasterConfig->MasterOutputTrigger));
  assert_param(IS_TIM_MSM_STATE(sMasterConfig->MasterSlaveMode));

  /* Check input state */
  __HAL_LOCK(htim);
 8002b42:	687b      	ldr	r3, [r7, #4]
 8002b44:	f893 303c 	ldrb.w	r3, [r3, #60]	; 0x3c
 8002b48:	2b01      	cmp	r3, #1
 8002b4a:	d101      	bne.n	8002b50 <HAL_TIMEx_MasterConfigSynchronization+0x18>
 8002b4c:	2302      	movs	r3, #2
 8002b4e:	e032      	b.n	8002bb6 <HAL_TIMEx_MasterConfigSynchronization+0x7e>
 8002b50:	687b      	ldr	r3, [r7, #4]
 8002b52:	2201      	movs	r2, #1
 8002b54:	f883 203c 	strb.w	r2, [r3, #60]	; 0x3c

  /* Change the handler state */
  htim->State = HAL_TIM_STATE_BUSY;
 8002b58:	687b      	ldr	r3, [r7, #4]
 8002b5a:	2202      	movs	r2, #2
 8002b5c:	f883 203d 	strb.w	r2, [r3, #61]	; 0x3d

  /* Get the TIMx CR2 register value */
  tmpcr2 = htim->Instance->CR2;
 8002b60:	687b      	ldr	r3, [r7, #4]
 8002b62:	681b      	ldr	r3, [r3, #0]
 8002b64:	685b      	ldr	r3, [r3, #4]
 8002b66:	60fb      	str	r3, [r7, #12]

  /* Get the TIMx SMCR register value */
  tmpsmcr = htim->Instance->SMCR;
 8002b68:	687b      	ldr	r3, [r7, #4]
 8002b6a:	681b      	ldr	r3, [r3, #0]
 8002b6c:	689b      	ldr	r3, [r3, #8]
 8002b6e:	60bb      	str	r3, [r7, #8]

  /* Reset the MMS Bits */
  tmpcr2 &= ~TIM_CR2_MMS;
 8002b70:	68fb      	ldr	r3, [r7, #12]
 8002b72:	f023 0370 	bic.w	r3, r3, #112	; 0x70
 8002b76:	60fb      	str	r3, [r7, #12]
  /* Select the TRGO source */
  tmpcr2 |=  sMasterConfig->MasterOutputTrigger;
 8002b78:	683b      	ldr	r3, [r7, #0]
 8002b7a:	681b      	ldr	r3, [r3, #0]
 8002b7c:	68fa      	ldr	r2, [r7, #12]
 8002b7e:	4313      	orrs	r3, r2
 8002b80:	60fb      	str	r3, [r7, #12]

  /* Reset the MSM Bit */
  tmpsmcr &= ~TIM_SMCR_MSM;
 8002b82:	68bb      	ldr	r3, [r7, #8]
 8002b84:	f023 0380 	bic.w	r3, r3, #128	; 0x80
 8002b88:	60bb      	str	r3, [r7, #8]
  /* Set master mode */
  tmpsmcr |= sMasterConfig->MasterSlaveMode;
 8002b8a:	683b      	ldr	r3, [r7, #0]
 8002b8c:	685b      	ldr	r3, [r3, #4]
 8002b8e:	68ba      	ldr	r2, [r7, #8]
 8002b90:	4313      	orrs	r3, r2
 8002b92:	60bb      	str	r3, [r7, #8]

  /* Update TIMx CR2 */
  htim->Instance->CR2 = tmpcr2;
 8002b94:	687b      	ldr	r3, [r7, #4]
 8002b96:	681b      	ldr	r3, [r3, #0]
 8002b98:	68fa      	ldr	r2, [r7, #12]
 8002b9a:	605a      	str	r2, [r3, #4]

  /* Update TIMx SMCR */
  htim->Instance->SMCR = tmpsmcr;
 8002b9c:	687b      	ldr	r3, [r7, #4]
 8002b9e:	681b      	ldr	r3, [r3, #0]
 8002ba0:	68ba      	ldr	r2, [r7, #8]
 8002ba2:	609a      	str	r2, [r3, #8]

  /* Change the htim state */
  htim->State = HAL_TIM_STATE_READY;
 8002ba4:	687b      	ldr	r3, [r7, #4]
 8002ba6:	2201      	movs	r2, #1
 8002ba8:	f883 203d 	strb.w	r2, [r3, #61]	; 0x3d

  __HAL_UNLOCK(htim);
 8002bac:	687b      	ldr	r3, [r7, #4]
 8002bae:	2200      	movs	r2, #0
 8002bb0:	f883 203c 	strb.w	r2, [r3, #60]	; 0x3c

  return HAL_OK;
 8002bb4:	2300      	movs	r3, #0
}
 8002bb6:	4618      	mov	r0, r3
 8002bb8:	3714      	adds	r7, #20
 8002bba:	46bd      	mov	sp, r7
 8002bbc:	bc80      	pop	{r7}
 8002bbe:	4770      	bx	lr

08002bc0 <HAL_UART_Init>:
  * @param  huart  Pointer to a UART_HandleTypeDef structure that contains
  *                the configuration information for the specified UART module.
  * @retval HAL status
  */
HAL_StatusTypeDef HAL_UART_Init(UART_HandleTypeDef *huart)
{
 8002bc0:	b580      	push	{r7, lr}
 8002bc2:	b082      	sub	sp, #8
 8002bc4:	af00      	add	r7, sp, #0
 8002bc6:	6078      	str	r0, [r7, #4]
  /* Check the UART handle allocation */
  if (huart == NULL)
 8002bc8:	687b      	ldr	r3, [r7, #4]
 8002bca:	2b00      	cmp	r3, #0
 8002bcc:	d101      	bne.n	8002bd2 <HAL_UART_Init+0x12>
  {
    return HAL_ERROR;
 8002bce:	2301      	movs	r3, #1
 8002bd0:	e03f      	b.n	8002c52 <HAL_UART_Init+0x92>
  assert_param(IS_UART_WORD_LENGTH(huart->Init.WordLength));
#if defined(USART_CR1_OVER8)
  assert_param(IS_UART_OVERSAMPLING(huart->Init.OverSampling));
#endif /* USART_CR1_OVER8 */

  if (huart->gState == HAL_UART_STATE_RESET)
 8002bd2:	687b      	ldr	r3, [r7, #4]
 8002bd4:	f893 3039 	ldrb.w	r3, [r3, #57]	; 0x39
 8002bd8:	b2db      	uxtb	r3, r3
 8002bda:	2b00      	cmp	r3, #0
 8002bdc:	d106      	bne.n	8002bec <HAL_UART_Init+0x2c>
  {
    /* Allocate lock resource and initialize it */
    huart->Lock = HAL_UNLOCKED;
 8002bde:	687b      	ldr	r3, [r7, #4]
 8002be0:	2200      	movs	r2, #0
 8002be2:	f883 2038 	strb.w	r2, [r3, #56]	; 0x38

    /* Init the low level hardware */
    huart->MspInitCallback(huart);
#else
    /* Init the low level hardware : GPIO, CLOCK */
    HAL_UART_MspInit(huart);
 8002be6:	6878      	ldr	r0, [r7, #4]
 8002be8:	f7fd fd74 	bl	80006d4 <HAL_UART_MspInit>
#endif /* (USE_HAL_UART_REGISTER_CALLBACKS) */
  }

  huart->gState = HAL_UART_STATE_BUSY;
 8002bec:	687b      	ldr	r3, [r7, #4]
 8002bee:	2224      	movs	r2, #36	; 0x24
 8002bf0:	f883 2039 	strb.w	r2, [r3, #57]	; 0x39

  /* Disable the peripheral */
  __HAL_UART_DISABLE(huart);
 8002bf4:	687b      	ldr	r3, [r7, #4]
 8002bf6:	681b      	ldr	r3, [r3, #0]
 8002bf8:	68da      	ldr	r2, [r3, #12]
 8002bfa:	687b      	ldr	r3, [r7, #4]
 8002bfc:	681b      	ldr	r3, [r3, #0]
 8002bfe:	f422 5200 	bic.w	r2, r2, #8192	; 0x2000
 8002c02:	60da      	str	r2, [r3, #12]

  /* Set the UART Communication parameters */
  UART_SetConfig(huart);
 8002c04:	6878      	ldr	r0, [r7, #4]
 8002c06:	f000 f90b 	bl	8002e20 <UART_SetConfig>

  /* In asynchronous mode, the following bits must be kept cleared:
     - LINEN and CLKEN bits in the USART_CR2 register,
     - SCEN, HDSEL and IREN  bits in the USART_CR3 register.*/
  CLEAR_BIT(huart->Instance->CR2, (USART_CR2_LINEN | USART_CR2_CLKEN));
 8002c0a:	687b      	ldr	r3, [r7, #4]
 8002c0c:	681b      	ldr	r3, [r3, #0]
 8002c0e:	691a      	ldr	r2, [r3, #16]
 8002c10:	687b      	ldr	r3, [r7, #4]
 8002c12:	681b      	ldr	r3, [r3, #0]
 8002c14:	f422 4290 	bic.w	r2, r2, #18432	; 0x4800
 8002c18:	611a      	str	r2, [r3, #16]
  CLEAR_BIT(huart->Instance->CR3, (USART_CR3_SCEN | USART_CR3_HDSEL | USART_CR3_IREN));
 8002c1a:	687b      	ldr	r3, [r7, #4]
 8002c1c:	681b      	ldr	r3, [r3, #0]
 8002c1e:	695a      	ldr	r2, [r3, #20]
 8002c20:	687b      	ldr	r3, [r7, #4]
 8002c22:	681b      	ldr	r3, [r3, #0]
 8002c24:	f022 022a 	bic.w	r2, r2, #42	; 0x2a
 8002c28:	615a      	str	r2, [r3, #20]

  /* Enable the peripheral */
  __HAL_UART_ENABLE(huart);
 8002c2a:	687b      	ldr	r3, [r7, #4]
 8002c2c:	681b      	ldr	r3, [r3, #0]
 8002c2e:	68da      	ldr	r2, [r3, #12]
 8002c30:	687b      	ldr	r3, [r7, #4]
 8002c32:	681b      	ldr	r3, [r3, #0]
 8002c34:	f442 5200 	orr.w	r2, r2, #8192	; 0x2000
 8002c38:	60da      	str	r2, [r3, #12]

  /* Initialize the UART state */
  huart->ErrorCode = HAL_UART_ERROR_NONE;
 8002c3a:	687b      	ldr	r3, [r7, #4]
 8002c3c:	2200      	movs	r2, #0
 8002c3e:	63da      	str	r2, [r3, #60]	; 0x3c
  huart->gState = HAL_UART_STATE_READY;
 8002c40:	687b      	ldr	r3, [r7, #4]
 8002c42:	2220      	movs	r2, #32
 8002c44:	f883 2039 	strb.w	r2, [r3, #57]	; 0x39
  huart->RxState = HAL_UART_STATE_READY;
 8002c48:	687b      	ldr	r3, [r7, #4]
 8002c4a:	2220      	movs	r2, #32
 8002c4c:	f883 203a 	strb.w	r2, [r3, #58]	; 0x3a

  return HAL_OK;
 8002c50:	2300      	movs	r3, #0
}
 8002c52:	4618      	mov	r0, r3
 8002c54:	3708      	adds	r7, #8
 8002c56:	46bd      	mov	sp, r7
 8002c58:	bd80      	pop	{r7, pc}

08002c5a <HAL_UART_Transmit>:
  * @param  Size  Amount of data elements (u8 or u16) to be sent
  * @param  Timeout Timeout duration
  * @retval HAL status
  */
HAL_StatusTypeDef HAL_UART_Transmit(UART_HandleTypeDef *huart, uint8_t *pData, uint16_t Size, uint32_t Timeout)
{
 8002c5a:	b580      	push	{r7, lr}
 8002c5c:	b088      	sub	sp, #32
 8002c5e:	af02      	add	r7, sp, #8
 8002c60:	60f8      	str	r0, [r7, #12]
 8002c62:	60b9      	str	r1, [r7, #8]
 8002c64:	603b      	str	r3, [r7, #0]
 8002c66:	4613      	mov	r3, r2
 8002c68:	80fb      	strh	r3, [r7, #6]
  uint16_t *tmp;
  uint32_t tickstart = 0U;
 8002c6a:	2300      	movs	r3, #0
 8002c6c:	617b      	str	r3, [r7, #20]

  /* Check that a Tx process is not already ongoing */
  if (huart->gState == HAL_UART_STATE_READY)
 8002c6e:	68fb      	ldr	r3, [r7, #12]
 8002c70:	f893 3039 	ldrb.w	r3, [r3, #57]	; 0x39
 8002c74:	b2db      	uxtb	r3, r3
 8002c76:	2b20      	cmp	r3, #32
 8002c78:	f040 8083 	bne.w	8002d82 <HAL_UART_Transmit+0x128>
  {
    if ((pData == NULL) || (Size == 0U))
 8002c7c:	68bb      	ldr	r3, [r7, #8]
 8002c7e:	2b00      	cmp	r3, #0
 8002c80:	d002      	beq.n	8002c88 <HAL_UART_Transmit+0x2e>
 8002c82:	88fb      	ldrh	r3, [r7, #6]
 8002c84:	2b00      	cmp	r3, #0
 8002c86:	d101      	bne.n	8002c8c <HAL_UART_Transmit+0x32>
    {
      return  HAL_ERROR;
 8002c88:	2301      	movs	r3, #1
 8002c8a:	e07b      	b.n	8002d84 <HAL_UART_Transmit+0x12a>
    }

    /* Process Locked */
    __HAL_LOCK(huart);
 8002c8c:	68fb      	ldr	r3, [r7, #12]
 8002c8e:	f893 3038 	ldrb.w	r3, [r3, #56]	; 0x38
 8002c92:	2b01      	cmp	r3, #1
 8002c94:	d101      	bne.n	8002c9a <HAL_UART_Transmit+0x40>
 8002c96:	2302      	movs	r3, #2
 8002c98:	e074      	b.n	8002d84 <HAL_UART_Transmit+0x12a>
 8002c9a:	68fb      	ldr	r3, [r7, #12]
 8002c9c:	2201      	movs	r2, #1
 8002c9e:	f883 2038 	strb.w	r2, [r3, #56]	; 0x38

    huart->ErrorCode = HAL_UART_ERROR_NONE;
 8002ca2:	68fb      	ldr	r3, [r7, #12]
 8002ca4:	2200      	movs	r2, #0
 8002ca6:	63da      	str	r2, [r3, #60]	; 0x3c
    huart->gState = HAL_UART_STATE_BUSY_TX;
 8002ca8:	68fb      	ldr	r3, [r7, #12]
 8002caa:	2221      	movs	r2, #33	; 0x21
 8002cac:	f883 2039 	strb.w	r2, [r3, #57]	; 0x39

    /* Init tickstart for timeout managment */
    tickstart = HAL_GetTick();
 8002cb0:	f7fd fecc 	bl	8000a4c <HAL_GetTick>
 8002cb4:	6178      	str	r0, [r7, #20]

    huart->TxXferSize = Size;
 8002cb6:	68fb      	ldr	r3, [r7, #12]
 8002cb8:	88fa      	ldrh	r2, [r7, #6]
 8002cba:	849a      	strh	r2, [r3, #36]	; 0x24
    huart->TxXferCount = Size;
 8002cbc:	68fb      	ldr	r3, [r7, #12]
 8002cbe:	88fa      	ldrh	r2, [r7, #6]
 8002cc0:	84da      	strh	r2, [r3, #38]	; 0x26
    while (huart->TxXferCount > 0U)
 8002cc2:	e042      	b.n	8002d4a <HAL_UART_Transmit+0xf0>
    {
      huart->TxXferCount--;
 8002cc4:	68fb      	ldr	r3, [r7, #12]
 8002cc6:	8cdb      	ldrh	r3, [r3, #38]	; 0x26
 8002cc8:	b29b      	uxth	r3, r3
 8002cca:	3b01      	subs	r3, #1
 8002ccc:	b29a      	uxth	r2, r3
 8002cce:	68fb      	ldr	r3, [r7, #12]
 8002cd0:	84da      	strh	r2, [r3, #38]	; 0x26
      if (huart->Init.WordLength == UART_WORDLENGTH_9B)
 8002cd2:	68fb      	ldr	r3, [r7, #12]
 8002cd4:	689b      	ldr	r3, [r3, #8]
 8002cd6:	f5b3 5f80 	cmp.w	r3, #4096	; 0x1000
 8002cda:	d122      	bne.n	8002d22 <HAL_UART_Transmit+0xc8>
      {
        if (UART_WaitOnFlagUntilTimeout(huart, UART_FLAG_TXE, RESET, tickstart, Timeout) != HAL_OK)
 8002cdc:	683b      	ldr	r3, [r7, #0]
 8002cde:	9300      	str	r3, [sp, #0]
 8002ce0:	697b      	ldr	r3, [r7, #20]
 8002ce2:	2200      	movs	r2, #0
 8002ce4:	2180      	movs	r1, #128	; 0x80
 8002ce6:	68f8      	ldr	r0, [r7, #12]
 8002ce8:	f000 f850 	bl	8002d8c <UART_WaitOnFlagUntilTimeout>
 8002cec:	4603      	mov	r3, r0
 8002cee:	2b00      	cmp	r3, #0
 8002cf0:	d001      	beq.n	8002cf6 <HAL_UART_Transmit+0x9c>
        {
          return HAL_TIMEOUT;
 8002cf2:	2303      	movs	r3, #3
 8002cf4:	e046      	b.n	8002d84 <HAL_UART_Transmit+0x12a>
        }
        tmp = (uint16_t *) pData;
 8002cf6:	68bb      	ldr	r3, [r7, #8]
 8002cf8:	613b      	str	r3, [r7, #16]
        huart->Instance->DR = (*tmp & (uint16_t)0x01FF);
 8002cfa:	693b      	ldr	r3, [r7, #16]
 8002cfc:	881b      	ldrh	r3, [r3, #0]
 8002cfe:	461a      	mov	r2, r3
 8002d00:	68fb      	ldr	r3, [r7, #12]
 8002d02:	681b      	ldr	r3, [r3, #0]
 8002d04:	f3c2 0208 	ubfx	r2, r2, #0, #9
 8002d08:	605a      	str	r2, [r3, #4]
        if (huart->Init.Parity == UART_PARITY_NONE)
 8002d0a:	68fb      	ldr	r3, [r7, #12]
 8002d0c:	691b      	ldr	r3, [r3, #16]
 8002d0e:	2b00      	cmp	r3, #0
 8002d10:	d103      	bne.n	8002d1a <HAL_UART_Transmit+0xc0>
        {
          pData += 2U;
 8002d12:	68bb      	ldr	r3, [r7, #8]
 8002d14:	3302      	adds	r3, #2
 8002d16:	60bb      	str	r3, [r7, #8]
 8002d18:	e017      	b.n	8002d4a <HAL_UART_Transmit+0xf0>
        }
        else
        {
          pData += 1U;
 8002d1a:	68bb      	ldr	r3, [r7, #8]
 8002d1c:	3301      	adds	r3, #1
 8002d1e:	60bb      	str	r3, [r7, #8]
 8002d20:	e013      	b.n	8002d4a <HAL_UART_Transmit+0xf0>
        }
      }
      else
      {
        if (UART_WaitOnFlagUntilTimeout(huart, UART_FLAG_TXE, RESET, tickstart, Timeout) != HAL_OK)
 8002d22:	683b      	ldr	r3, [r7, #0]
 8002d24:	9300      	str	r3, [sp, #0]
 8002d26:	697b      	ldr	r3, [r7, #20]
 8002d28:	2200      	movs	r2, #0
 8002d2a:	2180      	movs	r1, #128	; 0x80
 8002d2c:	68f8      	ldr	r0, [r7, #12]
 8002d2e:	f000 f82d 	bl	8002d8c <UART_WaitOnFlagUntilTimeout>
 8002d32:	4603      	mov	r3, r0
 8002d34:	2b00      	cmp	r3, #0
 8002d36:	d001      	beq.n	8002d3c <HAL_UART_Transmit+0xe2>
        {
          return HAL_TIMEOUT;
 8002d38:	2303      	movs	r3, #3
 8002d3a:	e023      	b.n	8002d84 <HAL_UART_Transmit+0x12a>
        }
        huart->Instance->DR = (*pData++ & (uint8_t)0xFF);
 8002d3c:	68bb      	ldr	r3, [r7, #8]
 8002d3e:	1c5a      	adds	r2, r3, #1
 8002d40:	60ba      	str	r2, [r7, #8]
 8002d42:	781a      	ldrb	r2, [r3, #0]
 8002d44:	68fb      	ldr	r3, [r7, #12]
 8002d46:	681b      	ldr	r3, [r3, #0]
 8002d48:	605a      	str	r2, [r3, #4]
    while (huart->TxXferCount > 0U)
 8002d4a:	68fb      	ldr	r3, [r7, #12]
 8002d4c:	8cdb      	ldrh	r3, [r3, #38]	; 0x26
 8002d4e:	b29b      	uxth	r3, r3
 8002d50:	2b00      	cmp	r3, #0
 8002d52:	d1b7      	bne.n	8002cc4 <HAL_UART_Transmit+0x6a>
      }
    }

    if (UART_WaitOnFlagUntilTimeout(huart, UART_FLAG_TC, RESET, tickstart, Timeout) != HAL_OK)
 8002d54:	683b      	ldr	r3, [r7, #0]
 8002d56:	9300      	str	r3, [sp, #0]
 8002d58:	697b      	ldr	r3, [r7, #20]
 8002d5a:	2200      	movs	r2, #0
 8002d5c:	2140      	movs	r1, #64	; 0x40
 8002d5e:	68f8      	ldr	r0, [r7, #12]
 8002d60:	f000 f814 	bl	8002d8c <UART_WaitOnFlagUntilTimeout>
 8002d64:	4603      	mov	r3, r0
 8002d66:	2b00      	cmp	r3, #0
 8002d68:	d001      	beq.n	8002d6e <HAL_UART_Transmit+0x114>
    {
      return HAL_TIMEOUT;
 8002d6a:	2303      	movs	r3, #3
 8002d6c:	e00a      	b.n	8002d84 <HAL_UART_Transmit+0x12a>
    }

    /* At end of Tx process, restore huart->gState to Ready */
    huart->gState = HAL_UART_STATE_READY;
 8002d6e:	68fb      	ldr	r3, [r7, #12]
 8002d70:	2220      	movs	r2, #32
 8002d72:	f883 2039 	strb.w	r2, [r3, #57]	; 0x39

    /* Process Unlocked */
    __HAL_UNLOCK(huart);
 8002d76:	68fb      	ldr	r3, [r7, #12]
 8002d78:	2200      	movs	r2, #0
 8002d7a:	f883 2038 	strb.w	r2, [r3, #56]	; 0x38

    return HAL_OK;
 8002d7e:	2300      	movs	r3, #0
 8002d80:	e000      	b.n	8002d84 <HAL_UART_Transmit+0x12a>
  }
  else
  {
    return HAL_BUSY;
 8002d82:	2302      	movs	r3, #2
  }
}
 8002d84:	4618      	mov	r0, r3
 8002d86:	3718      	adds	r7, #24
 8002d88:	46bd      	mov	sp, r7
 8002d8a:	bd80      	pop	{r7, pc}

08002d8c <UART_WaitOnFlagUntilTimeout>:
  * @param  Tickstart Tick start value
  * @param  Timeout Timeout duration
  * @retval HAL status
  */
static HAL_StatusTypeDef UART_WaitOnFlagUntilTimeout(UART_HandleTypeDef *huart, uint32_t Flag, FlagStatus Status, uint32_t Tickstart, uint32_t Timeout)
{
 8002d8c:	b580      	push	{r7, lr}
 8002d8e:	b084      	sub	sp, #16
 8002d90:	af00      	add	r7, sp, #0
 8002d92:	60f8      	str	r0, [r7, #12]
 8002d94:	60b9      	str	r1, [r7, #8]
 8002d96:	603b      	str	r3, [r7, #0]
 8002d98:	4613      	mov	r3, r2
 8002d9a:	71fb      	strb	r3, [r7, #7]
  /* Wait until flag is set */
  while ((__HAL_UART_GET_FLAG(huart, Flag) ? SET : RESET) == Status)
 8002d9c:	e02c      	b.n	8002df8 <UART_WaitOnFlagUntilTimeout+0x6c>
  {
    /* Check for the Timeout */
    if (Timeout != HAL_MAX_DELAY)
 8002d9e:	69bb      	ldr	r3, [r7, #24]
 8002da0:	f1b3 3fff 	cmp.w	r3, #4294967295
 8002da4:	d028      	beq.n	8002df8 <UART_WaitOnFlagUntilTimeout+0x6c>
    {
      if ((Timeout == 0U) || ((HAL_GetTick() - Tickstart) > Timeout))
 8002da6:	69bb      	ldr	r3, [r7, #24]
 8002da8:	2b00      	cmp	r3, #0
 8002daa:	d007      	beq.n	8002dbc <UART_WaitOnFlagUntilTimeout+0x30>
 8002dac:	f7fd fe4e 	bl	8000a4c <HAL_GetTick>
 8002db0:	4602      	mov	r2, r0
 8002db2:	683b      	ldr	r3, [r7, #0]
 8002db4:	1ad3      	subs	r3, r2, r3
 8002db6:	69ba      	ldr	r2, [r7, #24]
 8002db8:	429a      	cmp	r2, r3
 8002dba:	d21d      	bcs.n	8002df8 <UART_WaitOnFlagUntilTimeout+0x6c>
      {
        /* Disable TXE, RXNE, PE and ERR (Frame error, noise error, overrun error) interrupts for the interrupt process */
        CLEAR_BIT(huart->Instance->CR1, (USART_CR1_RXNEIE | USART_CR1_PEIE | USART_CR1_TXEIE));
 8002dbc:	68fb      	ldr	r3, [r7, #12]
 8002dbe:	681b      	ldr	r3, [r3, #0]
 8002dc0:	68da      	ldr	r2, [r3, #12]
 8002dc2:	68fb      	ldr	r3, [r7, #12]
 8002dc4:	681b      	ldr	r3, [r3, #0]
 8002dc6:	f422 72d0 	bic.w	r2, r2, #416	; 0x1a0
 8002dca:	60da      	str	r2, [r3, #12]
        CLEAR_BIT(huart->Instance->CR3, USART_CR3_EIE);
 8002dcc:	68fb      	ldr	r3, [r7, #12]
 8002dce:	681b      	ldr	r3, [r3, #0]
 8002dd0:	695a      	ldr	r2, [r3, #20]
 8002dd2:	68fb      	ldr	r3, [r7, #12]
 8002dd4:	681b      	ldr	r3, [r3, #0]
 8002dd6:	f022 0201 	bic.w	r2, r2, #1
 8002dda:	615a      	str	r2, [r3, #20]

        huart->gState  = HAL_UART_STATE_READY;
 8002ddc:	68fb      	ldr	r3, [r7, #12]
 8002dde:	2220      	movs	r2, #32
 8002de0:	f883 2039 	strb.w	r2, [r3, #57]	; 0x39
        huart->RxState = HAL_UART_STATE_READY;
 8002de4:	68fb      	ldr	r3, [r7, #12]
 8002de6:	2220      	movs	r2, #32
 8002de8:	f883 203a 	strb.w	r2, [r3, #58]	; 0x3a

        /* Process Unlocked */
        __HAL_UNLOCK(huart);
 8002dec:	68fb      	ldr	r3, [r7, #12]
 8002dee:	2200      	movs	r2, #0
 8002df0:	f883 2038 	strb.w	r2, [r3, #56]	; 0x38

        return HAL_TIMEOUT;
 8002df4:	2303      	movs	r3, #3
 8002df6:	e00f      	b.n	8002e18 <UART_WaitOnFlagUntilTimeout+0x8c>
  while ((__HAL_UART_GET_FLAG(huart, Flag) ? SET : RESET) == Status)
 8002df8:	68fb      	ldr	r3, [r7, #12]
 8002dfa:	681b      	ldr	r3, [r3, #0]
 8002dfc:	681a      	ldr	r2, [r3, #0]
 8002dfe:	68bb      	ldr	r3, [r7, #8]
 8002e00:	4013      	ands	r3, r2
 8002e02:	68ba      	ldr	r2, [r7, #8]
 8002e04:	429a      	cmp	r2, r3
 8002e06:	bf0c      	ite	eq
 8002e08:	2301      	moveq	r3, #1
 8002e0a:	2300      	movne	r3, #0
 8002e0c:	b2db      	uxtb	r3, r3
 8002e0e:	461a      	mov	r2, r3
 8002e10:	79fb      	ldrb	r3, [r7, #7]
 8002e12:	429a      	cmp	r2, r3
 8002e14:	d0c3      	beq.n	8002d9e <UART_WaitOnFlagUntilTimeout+0x12>
      }
    }
  }
  return HAL_OK;
 8002e16:	2300      	movs	r3, #0
}
 8002e18:	4618      	mov	r0, r3
 8002e1a:	3710      	adds	r7, #16
 8002e1c:	46bd      	mov	sp, r7
 8002e1e:	bd80      	pop	{r7, pc}

08002e20 <UART_SetConfig>:
  * @param  huart  Pointer to a UART_HandleTypeDef structure that contains
  *                the configuration information for the specified UART module.
  * @retval None
  */
static void UART_SetConfig(UART_HandleTypeDef *huart)
{
 8002e20:	b580      	push	{r7, lr}
 8002e22:	b084      	sub	sp, #16
 8002e24:	af00      	add	r7, sp, #0
 8002e26:	6078      	str	r0, [r7, #4]
  assert_param(IS_UART_MODE(huart->Init.Mode));

  /*-------------------------- USART CR2 Configuration -----------------------*/
  /* Configure the UART Stop Bits: Set STOP[13:12] bits
     according to huart->Init.StopBits value */
  MODIFY_REG(huart->Instance->CR2, USART_CR2_STOP, huart->Init.StopBits);
 8002e28:	687b      	ldr	r3, [r7, #4]
 8002e2a:	681b      	ldr	r3, [r3, #0]
 8002e2c:	691b      	ldr	r3, [r3, #16]
 8002e2e:	f423 5140 	bic.w	r1, r3, #12288	; 0x3000
 8002e32:	687b      	ldr	r3, [r7, #4]
 8002e34:	68da      	ldr	r2, [r3, #12]
 8002e36:	687b      	ldr	r3, [r7, #4]
 8002e38:	681b      	ldr	r3, [r3, #0]
 8002e3a:	430a      	orrs	r2, r1
 8002e3c:	611a      	str	r2, [r3, #16]
  tmpreg = (uint32_t)huart->Init.WordLength | huart->Init.Parity | huart->Init.Mode | huart->Init.OverSampling;
  MODIFY_REG(huart->Instance->CR1,
             (uint32_t)(USART_CR1_M | USART_CR1_PCE | USART_CR1_PS | USART_CR1_TE | USART_CR1_RE | USART_CR1_OVER8),
             tmpreg);
#else
  tmpreg = (uint32_t)huart->Init.WordLength | huart->Init.Parity | huart->Init.Mode;
 8002e3e:	687b      	ldr	r3, [r7, #4]
 8002e40:	689a      	ldr	r2, [r3, #8]
 8002e42:	687b      	ldr	r3, [r7, #4]
 8002e44:	691b      	ldr	r3, [r3, #16]
 8002e46:	431a      	orrs	r2, r3
 8002e48:	687b      	ldr	r3, [r7, #4]
 8002e4a:	695b      	ldr	r3, [r3, #20]
 8002e4c:	4313      	orrs	r3, r2
 8002e4e:	60fb      	str	r3, [r7, #12]
  MODIFY_REG(huart->Instance->CR1,
 8002e50:	687b      	ldr	r3, [r7, #4]
 8002e52:	681b      	ldr	r3, [r3, #0]
 8002e54:	68db      	ldr	r3, [r3, #12]
 8002e56:	f423 53b0 	bic.w	r3, r3, #5632	; 0x1600
 8002e5a:	f023 030c 	bic.w	r3, r3, #12
 8002e5e:	687a      	ldr	r2, [r7, #4]
 8002e60:	6812      	ldr	r2, [r2, #0]
 8002e62:	68f9      	ldr	r1, [r7, #12]
 8002e64:	430b      	orrs	r3, r1
 8002e66:	60d3      	str	r3, [r2, #12]
             tmpreg);
#endif /* USART_CR1_OVER8 */

  /*-------------------------- USART CR3 Configuration -----------------------*/
  /* Configure the UART HFC: Set CTSE and RTSE bits according to huart->Init.HwFlowCtl value */
  MODIFY_REG(huart->Instance->CR3, (USART_CR3_RTSE | USART_CR3_CTSE), huart->Init.HwFlowCtl);
 8002e68:	687b      	ldr	r3, [r7, #4]
 8002e6a:	681b      	ldr	r3, [r3, #0]
 8002e6c:	695b      	ldr	r3, [r3, #20]
 8002e6e:	f423 7140 	bic.w	r1, r3, #768	; 0x300
 8002e72:	687b      	ldr	r3, [r7, #4]
 8002e74:	699a      	ldr	r2, [r3, #24]
 8002e76:	687b      	ldr	r3, [r7, #4]
 8002e78:	681b      	ldr	r3, [r3, #0]
 8002e7a:	430a      	orrs	r2, r1
 8002e7c:	615a      	str	r2, [r3, #20]
      huart->Instance->BRR = UART_BRR_SAMPLING16(pclk, huart->Init.BaudRate);
    }
  }
#else
  /*-------------------------- USART BRR Configuration ---------------------*/
  if(huart->Instance == USART1)
 8002e7e:	687b      	ldr	r3, [r7, #4]
 8002e80:	681b      	ldr	r3, [r3, #0]
 8002e82:	4a52      	ldr	r2, [pc, #328]	; (8002fcc <UART_SetConfig+0x1ac>)
 8002e84:	4293      	cmp	r3, r2
 8002e86:	d14e      	bne.n	8002f26 <UART_SetConfig+0x106>
  {
    pclk = HAL_RCC_GetPCLK2Freq();
 8002e88:	f7fe fc70 	bl	800176c <HAL_RCC_GetPCLK2Freq>
 8002e8c:	60b8      	str	r0, [r7, #8]
    huart->Instance->BRR = UART_BRR_SAMPLING16(pclk, huart->Init.BaudRate);
 8002e8e:	68ba      	ldr	r2, [r7, #8]
 8002e90:	4613      	mov	r3, r2
 8002e92:	009b      	lsls	r3, r3, #2
 8002e94:	4413      	add	r3, r2
 8002e96:	009a      	lsls	r2, r3, #2
 8002e98:	441a      	add	r2, r3
 8002e9a:	687b      	ldr	r3, [r7, #4]
 8002e9c:	685b      	ldr	r3, [r3, #4]
 8002e9e:	009b      	lsls	r3, r3, #2
 8002ea0:	fbb2 f3f3 	udiv	r3, r2, r3
 8002ea4:	4a4a      	ldr	r2, [pc, #296]	; (8002fd0 <UART_SetConfig+0x1b0>)
 8002ea6:	fba2 2303 	umull	r2, r3, r2, r3
 8002eaa:	095b      	lsrs	r3, r3, #5
 8002eac:	0119      	lsls	r1, r3, #4
 8002eae:	68ba      	ldr	r2, [r7, #8]
 8002eb0:	4613      	mov	r3, r2
 8002eb2:	009b      	lsls	r3, r3, #2
 8002eb4:	4413      	add	r3, r2
 8002eb6:	009a      	lsls	r2, r3, #2
 8002eb8:	441a      	add	r2, r3
 8002eba:	687b      	ldr	r3, [r7, #4]
 8002ebc:	685b      	ldr	r3, [r3, #4]
 8002ebe:	009b      	lsls	r3, r3, #2
 8002ec0:	fbb2 f2f3 	udiv	r2, r2, r3
 8002ec4:	4b42      	ldr	r3, [pc, #264]	; (8002fd0 <UART_SetConfig+0x1b0>)
 8002ec6:	fba3 0302 	umull	r0, r3, r3, r2
 8002eca:	095b      	lsrs	r3, r3, #5
 8002ecc:	2064      	movs	r0, #100	; 0x64
 8002ece:	fb00 f303 	mul.w	r3, r0, r3
 8002ed2:	1ad3      	subs	r3, r2, r3
 8002ed4:	011b      	lsls	r3, r3, #4
 8002ed6:	3332      	adds	r3, #50	; 0x32
 8002ed8:	4a3d      	ldr	r2, [pc, #244]	; (8002fd0 <UART_SetConfig+0x1b0>)
 8002eda:	fba2 2303 	umull	r2, r3, r2, r3
 8002ede:	095b      	lsrs	r3, r3, #5
 8002ee0:	f003 03f0 	and.w	r3, r3, #240	; 0xf0
 8002ee4:	4419      	add	r1, r3
 8002ee6:	68ba      	ldr	r2, [r7, #8]
 8002ee8:	4613      	mov	r3, r2
 8002eea:	009b      	lsls	r3, r3, #2
 8002eec:	4413      	add	r3, r2
 8002eee:	009a      	lsls	r2, r3, #2
 8002ef0:	441a      	add	r2, r3
 8002ef2:	687b      	ldr	r3, [r7, #4]
 8002ef4:	685b      	ldr	r3, [r3, #4]
 8002ef6:	009b      	lsls	r3, r3, #2
 8002ef8:	fbb2 f2f3 	udiv	r2, r2, r3
 8002efc:	4b34      	ldr	r3, [pc, #208]	; (8002fd0 <UART_SetConfig+0x1b0>)
 8002efe:	fba3 0302 	umull	r0, r3, r3, r2
 8002f02:	095b      	lsrs	r3, r3, #5
 8002f04:	2064      	movs	r0, #100	; 0x64
 8002f06:	fb00 f303 	mul.w	r3, r0, r3
 8002f0a:	1ad3      	subs	r3, r2, r3
 8002f0c:	011b      	lsls	r3, r3, #4
 8002f0e:	3332      	adds	r3, #50	; 0x32
 8002f10:	4a2f      	ldr	r2, [pc, #188]	; (8002fd0 <UART_SetConfig+0x1b0>)
 8002f12:	fba2 2303 	umull	r2, r3, r2, r3
 8002f16:	095b      	lsrs	r3, r3, #5
 8002f18:	f003 020f 	and.w	r2, r3, #15
 8002f1c:	687b      	ldr	r3, [r7, #4]
 8002f1e:	681b      	ldr	r3, [r3, #0]
 8002f20:	440a      	add	r2, r1
 8002f22:	609a      	str	r2, [r3, #8]
  {
    pclk = HAL_RCC_GetPCLK1Freq();
    huart->Instance->BRR = UART_BRR_SAMPLING16(pclk, huart->Init.BaudRate);
  }
#endif /* USART_CR1_OVER8 */
}
 8002f24:	e04d      	b.n	8002fc2 <UART_SetConfig+0x1a2>
    pclk = HAL_RCC_GetPCLK1Freq();
 8002f26:	f7fe fc0d 	bl	8001744 <HAL_RCC_GetPCLK1Freq>
 8002f2a:	60b8      	str	r0, [r7, #8]
    huart->Instance->BRR = UART_BRR_SAMPLING16(pclk, huart->Init.BaudRate);
 8002f2c:	68ba      	ldr	r2, [r7, #8]
 8002f2e:	4613      	mov	r3, r2
 8002f30:	009b      	lsls	r3, r3, #2
 8002f32:	4413      	add	r3, r2
 8002f34:	009a      	lsls	r2, r3, #2
 8002f36:	441a      	add	r2, r3
 8002f38:	687b      	ldr	r3, [r7, #4]
 8002f3a:	685b      	ldr	r3, [r3, #4]
 8002f3c:	009b      	lsls	r3, r3, #2
 8002f3e:	fbb2 f3f3 	udiv	r3, r2, r3
 8002f42:	4a23      	ldr	r2, [pc, #140]	; (8002fd0 <UART_SetConfig+0x1b0>)
 8002f44:	fba2 2303 	umull	r2, r3, r2, r3
 8002f48:	095b      	lsrs	r3, r3, #5
 8002f4a:	0119      	lsls	r1, r3, #4
 8002f4c:	68ba      	ldr	r2, [r7, #8]
 8002f4e:	4613      	mov	r3, r2
 8002f50:	009b      	lsls	r3, r3, #2
 8002f52:	4413      	add	r3, r2
 8002f54:	009a      	lsls	r2, r3, #2
 8002f56:	441a      	add	r2, r3
 8002f58:	687b      	ldr	r3, [r7, #4]
 8002f5a:	685b      	ldr	r3, [r3, #4]
 8002f5c:	009b      	lsls	r3, r3, #2
 8002f5e:	fbb2 f2f3 	udiv	r2, r2, r3
 8002f62:	4b1b      	ldr	r3, [pc, #108]	; (8002fd0 <UART_SetConfig+0x1b0>)
 8002f64:	fba3 0302 	umull	r0, r3, r3, r2
 8002f68:	095b      	lsrs	r3, r3, #5
 8002f6a:	2064      	movs	r0, #100	; 0x64
 8002f6c:	fb00 f303 	mul.w	r3, r0, r3
 8002f70:	1ad3      	subs	r3, r2, r3
 8002f72:	011b      	lsls	r3, r3, #4
 8002f74:	3332      	adds	r3, #50	; 0x32
 8002f76:	4a16      	ldr	r2, [pc, #88]	; (8002fd0 <UART_SetConfig+0x1b0>)
 8002f78:	fba2 2303 	umull	r2, r3, r2, r3
 8002f7c:	095b      	lsrs	r3, r3, #5
 8002f7e:	f003 03f0 	and.w	r3, r3, #240	; 0xf0
 8002f82:	4419      	add	r1, r3
 8002f84:	68ba      	ldr	r2, [r7, #8]
 8002f86:	4613      	mov	r3, r2
 8002f88:	009b      	lsls	r3, r3, #2
 8002f8a:	4413      	add	r3, r2
 8002f8c:	009a      	lsls	r2, r3, #2
 8002f8e:	441a      	add	r2, r3
 8002f90:	687b      	ldr	r3, [r7, #4]
 8002f92:	685b      	ldr	r3, [r3, #4]
 8002f94:	009b      	lsls	r3, r3, #2
 8002f96:	fbb2 f2f3 	udiv	r2, r2, r3
 8002f9a:	4b0d      	ldr	r3, [pc, #52]	; (8002fd0 <UART_SetConfig+0x1b0>)
 8002f9c:	fba3 0302 	umull	r0, r3, r3, r2
 8002fa0:	095b      	lsrs	r3, r3, #5
 8002fa2:	2064      	movs	r0, #100	; 0x64
 8002fa4:	fb00 f303 	mul.w	r3, r0, r3
 8002fa8:	1ad3      	subs	r3, r2, r3
 8002faa:	011b      	lsls	r3, r3, #4
 8002fac:	3332      	adds	r3, #50	; 0x32
 8002fae:	4a08      	ldr	r2, [pc, #32]	; (8002fd0 <UART_SetConfig+0x1b0>)
 8002fb0:	fba2 2303 	umull	r2, r3, r2, r3
 8002fb4:	095b      	lsrs	r3, r3, #5
 8002fb6:	f003 020f 	and.w	r2, r3, #15
 8002fba:	687b      	ldr	r3, [r7, #4]
 8002fbc:	681b      	ldr	r3, [r3, #0]
 8002fbe:	440a      	add	r2, r1
 8002fc0:	609a      	str	r2, [r3, #8]
}
 8002fc2:	bf00      	nop
 8002fc4:	3710      	adds	r7, #16
 8002fc6:	46bd      	mov	sp, r7
 8002fc8:	bd80      	pop	{r7, pc}
 8002fca:	bf00      	nop
 8002fcc:	40013800 	.word	0x40013800
 8002fd0:	51eb851f 	.word	0x51eb851f

08002fd4 <__errno>:
 8002fd4:	4b01      	ldr	r3, [pc, #4]	; (8002fdc <__errno+0x8>)
 8002fd6:	6818      	ldr	r0, [r3, #0]
 8002fd8:	4770      	bx	lr
 8002fda:	bf00      	nop
 8002fdc:	2000000c 	.word	0x2000000c

08002fe0 <__libc_init_array>:
 8002fe0:	b570      	push	{r4, r5, r6, lr}
 8002fe2:	2500      	movs	r5, #0
 8002fe4:	4e0c      	ldr	r6, [pc, #48]	; (8003018 <__libc_init_array+0x38>)
 8002fe6:	4c0d      	ldr	r4, [pc, #52]	; (800301c <__libc_init_array+0x3c>)
 8002fe8:	1ba4      	subs	r4, r4, r6
 8002fea:	10a4      	asrs	r4, r4, #2
 8002fec:	42a5      	cmp	r5, r4
 8002fee:	d109      	bne.n	8003004 <__libc_init_array+0x24>
 8002ff0:	f000 ff10 	bl	8003e14 <_init>
 8002ff4:	2500      	movs	r5, #0
 8002ff6:	4e0a      	ldr	r6, [pc, #40]	; (8003020 <__libc_init_array+0x40>)
 8002ff8:	4c0a      	ldr	r4, [pc, #40]	; (8003024 <__libc_init_array+0x44>)
 8002ffa:	1ba4      	subs	r4, r4, r6
 8002ffc:	10a4      	asrs	r4, r4, #2
 8002ffe:	42a5      	cmp	r5, r4
 8003000:	d105      	bne.n	800300e <__libc_init_array+0x2e>
 8003002:	bd70      	pop	{r4, r5, r6, pc}
 8003004:	f856 3025 	ldr.w	r3, [r6, r5, lsl #2]
 8003008:	4798      	blx	r3
 800300a:	3501      	adds	r5, #1
 800300c:	e7ee      	b.n	8002fec <__libc_init_array+0xc>
 800300e:	f856 3025 	ldr.w	r3, [r6, r5, lsl #2]
 8003012:	4798      	blx	r3
 8003014:	3501      	adds	r5, #1
 8003016:	e7f2      	b.n	8002ffe <__libc_init_array+0x1e>
 8003018:	08003f0c 	.word	0x08003f0c
 800301c:	08003f0c 	.word	0x08003f0c
 8003020:	08003f0c 	.word	0x08003f0c
 8003024:	08003f10 	.word	0x08003f10

08003028 <memset>:
 8003028:	4603      	mov	r3, r0
 800302a:	4402      	add	r2, r0
 800302c:	4293      	cmp	r3, r2
 800302e:	d100      	bne.n	8003032 <memset+0xa>
 8003030:	4770      	bx	lr
 8003032:	f803 1b01 	strb.w	r1, [r3], #1
 8003036:	e7f9      	b.n	800302c <memset+0x4>

08003038 <iprintf>:
 8003038:	b40f      	push	{r0, r1, r2, r3}
 800303a:	4b0a      	ldr	r3, [pc, #40]	; (8003064 <iprintf+0x2c>)
 800303c:	b513      	push	{r0, r1, r4, lr}
 800303e:	681c      	ldr	r4, [r3, #0]
 8003040:	b124      	cbz	r4, 800304c <iprintf+0x14>
 8003042:	69a3      	ldr	r3, [r4, #24]
 8003044:	b913      	cbnz	r3, 800304c <iprintf+0x14>
 8003046:	4620      	mov	r0, r4
 8003048:	f000 f84e 	bl	80030e8 <__sinit>
 800304c:	ab05      	add	r3, sp, #20
 800304e:	9a04      	ldr	r2, [sp, #16]
 8003050:	68a1      	ldr	r1, [r4, #8]
 8003052:	4620      	mov	r0, r4
 8003054:	9301      	str	r3, [sp, #4]
 8003056:	f000 f953 	bl	8003300 <_vfiprintf_r>
 800305a:	b002      	add	sp, #8
 800305c:	e8bd 4010 	ldmia.w	sp!, {r4, lr}
 8003060:	b004      	add	sp, #16
 8003062:	4770      	bx	lr
 8003064:	2000000c 	.word	0x2000000c

08003068 <std>:
 8003068:	2300      	movs	r3, #0
 800306a:	b510      	push	{r4, lr}
 800306c:	4604      	mov	r4, r0
 800306e:	e9c0 3300 	strd	r3, r3, [r0]
 8003072:	6083      	str	r3, [r0, #8]
 8003074:	8181      	strh	r1, [r0, #12]
 8003076:	6643      	str	r3, [r0, #100]	; 0x64
 8003078:	81c2      	strh	r2, [r0, #14]
 800307a:	e9c0 3304 	strd	r3, r3, [r0, #16]
 800307e:	6183      	str	r3, [r0, #24]
 8003080:	4619      	mov	r1, r3
 8003082:	2208      	movs	r2, #8
 8003084:	305c      	adds	r0, #92	; 0x5c
 8003086:	f7ff ffcf 	bl	8003028 <memset>
 800308a:	4b05      	ldr	r3, [pc, #20]	; (80030a0 <std+0x38>)
 800308c:	6224      	str	r4, [r4, #32]
 800308e:	6263      	str	r3, [r4, #36]	; 0x24
 8003090:	4b04      	ldr	r3, [pc, #16]	; (80030a4 <std+0x3c>)
 8003092:	62a3      	str	r3, [r4, #40]	; 0x28
 8003094:	4b04      	ldr	r3, [pc, #16]	; (80030a8 <std+0x40>)
 8003096:	62e3      	str	r3, [r4, #44]	; 0x2c
 8003098:	4b04      	ldr	r3, [pc, #16]	; (80030ac <std+0x44>)
 800309a:	6323      	str	r3, [r4, #48]	; 0x30
 800309c:	bd10      	pop	{r4, pc}
 800309e:	bf00      	nop
 80030a0:	0800385d 	.word	0x0800385d
 80030a4:	0800387f 	.word	0x0800387f
 80030a8:	080038b7 	.word	0x080038b7
 80030ac:	080038db 	.word	0x080038db

080030b0 <_cleanup_r>:
 80030b0:	4901      	ldr	r1, [pc, #4]	; (80030b8 <_cleanup_r+0x8>)
 80030b2:	f000 b885 	b.w	80031c0 <_fwalk_reent>
 80030b6:	bf00      	nop
 80030b8:	08003bb5 	.word	0x08003bb5

080030bc <__sfmoreglue>:
 80030bc:	b570      	push	{r4, r5, r6, lr}
 80030be:	2568      	movs	r5, #104	; 0x68
 80030c0:	1e4a      	subs	r2, r1, #1
 80030c2:	4355      	muls	r5, r2
 80030c4:	460e      	mov	r6, r1
 80030c6:	f105 0174 	add.w	r1, r5, #116	; 0x74
 80030ca:	f000 f897 	bl	80031fc <_malloc_r>
 80030ce:	4604      	mov	r4, r0
 80030d0:	b140      	cbz	r0, 80030e4 <__sfmoreglue+0x28>
 80030d2:	2100      	movs	r1, #0
 80030d4:	e9c0 1600 	strd	r1, r6, [r0]
 80030d8:	300c      	adds	r0, #12
 80030da:	60a0      	str	r0, [r4, #8]
 80030dc:	f105 0268 	add.w	r2, r5, #104	; 0x68
 80030e0:	f7ff ffa2 	bl	8003028 <memset>
 80030e4:	4620      	mov	r0, r4
 80030e6:	bd70      	pop	{r4, r5, r6, pc}

080030e8 <__sinit>:
 80030e8:	6983      	ldr	r3, [r0, #24]
 80030ea:	b510      	push	{r4, lr}
 80030ec:	4604      	mov	r4, r0
 80030ee:	bb33      	cbnz	r3, 800313e <__sinit+0x56>
 80030f0:	e9c0 3312 	strd	r3, r3, [r0, #72]	; 0x48
 80030f4:	6503      	str	r3, [r0, #80]	; 0x50
 80030f6:	4b12      	ldr	r3, [pc, #72]	; (8003140 <__sinit+0x58>)
 80030f8:	4a12      	ldr	r2, [pc, #72]	; (8003144 <__sinit+0x5c>)
 80030fa:	681b      	ldr	r3, [r3, #0]
 80030fc:	6282      	str	r2, [r0, #40]	; 0x28
 80030fe:	4298      	cmp	r0, r3
 8003100:	bf04      	itt	eq
 8003102:	2301      	moveq	r3, #1
 8003104:	6183      	streq	r3, [r0, #24]
 8003106:	f000 f81f 	bl	8003148 <__sfp>
 800310a:	6060      	str	r0, [r4, #4]
 800310c:	4620      	mov	r0, r4
 800310e:	f000 f81b 	bl	8003148 <__sfp>
 8003112:	60a0      	str	r0, [r4, #8]
 8003114:	4620      	mov	r0, r4
 8003116:	f000 f817 	bl	8003148 <__sfp>
 800311a:	2200      	movs	r2, #0
 800311c:	60e0      	str	r0, [r4, #12]
 800311e:	2104      	movs	r1, #4
 8003120:	6860      	ldr	r0, [r4, #4]
 8003122:	f7ff ffa1 	bl	8003068 <std>
 8003126:	2201      	movs	r2, #1
 8003128:	2109      	movs	r1, #9
 800312a:	68a0      	ldr	r0, [r4, #8]
 800312c:	f7ff ff9c 	bl	8003068 <std>
 8003130:	2202      	movs	r2, #2
 8003132:	2112      	movs	r1, #18
 8003134:	68e0      	ldr	r0, [r4, #12]
 8003136:	f7ff ff97 	bl	8003068 <std>
 800313a:	2301      	movs	r3, #1
 800313c:	61a3      	str	r3, [r4, #24]
 800313e:	bd10      	pop	{r4, pc}
 8003140:	08003e74 	.word	0x08003e74
 8003144:	080030b1 	.word	0x080030b1

08003148 <__sfp>:
 8003148:	b5f8      	push	{r3, r4, r5, r6, r7, lr}
 800314a:	4b1b      	ldr	r3, [pc, #108]	; (80031b8 <__sfp+0x70>)
 800314c:	4607      	mov	r7, r0
 800314e:	681e      	ldr	r6, [r3, #0]
 8003150:	69b3      	ldr	r3, [r6, #24]
 8003152:	b913      	cbnz	r3, 800315a <__sfp+0x12>
 8003154:	4630      	mov	r0, r6
 8003156:	f7ff ffc7 	bl	80030e8 <__sinit>
 800315a:	3648      	adds	r6, #72	; 0x48
 800315c:	e9d6 3401 	ldrd	r3, r4, [r6, #4]
 8003160:	3b01      	subs	r3, #1
 8003162:	d503      	bpl.n	800316c <__sfp+0x24>
 8003164:	6833      	ldr	r3, [r6, #0]
 8003166:	b133      	cbz	r3, 8003176 <__sfp+0x2e>
 8003168:	6836      	ldr	r6, [r6, #0]
 800316a:	e7f7      	b.n	800315c <__sfp+0x14>
 800316c:	f9b4 500c 	ldrsh.w	r5, [r4, #12]
 8003170:	b16d      	cbz	r5, 800318e <__sfp+0x46>
 8003172:	3468      	adds	r4, #104	; 0x68
 8003174:	e7f4      	b.n	8003160 <__sfp+0x18>
 8003176:	2104      	movs	r1, #4
 8003178:	4638      	mov	r0, r7
 800317a:	f7ff ff9f 	bl	80030bc <__sfmoreglue>
 800317e:	6030      	str	r0, [r6, #0]
 8003180:	2800      	cmp	r0, #0
 8003182:	d1f1      	bne.n	8003168 <__sfp+0x20>
 8003184:	230c      	movs	r3, #12
 8003186:	4604      	mov	r4, r0
 8003188:	603b      	str	r3, [r7, #0]
 800318a:	4620      	mov	r0, r4
 800318c:	bdf8      	pop	{r3, r4, r5, r6, r7, pc}
 800318e:	4b0b      	ldr	r3, [pc, #44]	; (80031bc <__sfp+0x74>)
 8003190:	6665      	str	r5, [r4, #100]	; 0x64
 8003192:	e9c4 5500 	strd	r5, r5, [r4]
 8003196:	60a5      	str	r5, [r4, #8]
 8003198:	e9c4 3503 	strd	r3, r5, [r4, #12]
 800319c:	e9c4 5505 	strd	r5, r5, [r4, #20]
 80031a0:	2208      	movs	r2, #8
 80031a2:	4629      	mov	r1, r5
 80031a4:	f104 005c 	add.w	r0, r4, #92	; 0x5c
 80031a8:	f7ff ff3e 	bl	8003028 <memset>
 80031ac:	e9c4 550d 	strd	r5, r5, [r4, #52]	; 0x34
 80031b0:	e9c4 5512 	strd	r5, r5, [r4, #72]	; 0x48
 80031b4:	e7e9      	b.n	800318a <__sfp+0x42>
 80031b6:	bf00      	nop
 80031b8:	08003e74 	.word	0x08003e74
 80031bc:	ffff0001 	.word	0xffff0001

080031c0 <_fwalk_reent>:
 80031c0:	e92d 43f8 	stmdb	sp!, {r3, r4, r5, r6, r7, r8, r9, lr}
 80031c4:	4680      	mov	r8, r0
 80031c6:	4689      	mov	r9, r1
 80031c8:	2600      	movs	r6, #0
 80031ca:	f100 0448 	add.w	r4, r0, #72	; 0x48
 80031ce:	b914      	cbnz	r4, 80031d6 <_fwalk_reent+0x16>
 80031d0:	4630      	mov	r0, r6
 80031d2:	e8bd 83f8 	ldmia.w	sp!, {r3, r4, r5, r6, r7, r8, r9, pc}
 80031d6:	e9d4 7501 	ldrd	r7, r5, [r4, #4]
 80031da:	3f01      	subs	r7, #1
 80031dc:	d501      	bpl.n	80031e2 <_fwalk_reent+0x22>
 80031de:	6824      	ldr	r4, [r4, #0]
 80031e0:	e7f5      	b.n	80031ce <_fwalk_reent+0xe>
 80031e2:	89ab      	ldrh	r3, [r5, #12]
 80031e4:	2b01      	cmp	r3, #1
 80031e6:	d907      	bls.n	80031f8 <_fwalk_reent+0x38>
 80031e8:	f9b5 300e 	ldrsh.w	r3, [r5, #14]
 80031ec:	3301      	adds	r3, #1
 80031ee:	d003      	beq.n	80031f8 <_fwalk_reent+0x38>
 80031f0:	4629      	mov	r1, r5
 80031f2:	4640      	mov	r0, r8
 80031f4:	47c8      	blx	r9
 80031f6:	4306      	orrs	r6, r0
 80031f8:	3568      	adds	r5, #104	; 0x68
 80031fa:	e7ee      	b.n	80031da <_fwalk_reent+0x1a>

080031fc <_malloc_r>:
 80031fc:	b570      	push	{r4, r5, r6, lr}
 80031fe:	1ccd      	adds	r5, r1, #3
 8003200:	f025 0503 	bic.w	r5, r5, #3
 8003204:	3508      	adds	r5, #8
 8003206:	2d0c      	cmp	r5, #12
 8003208:	bf38      	it	cc
 800320a:	250c      	movcc	r5, #12
 800320c:	2d00      	cmp	r5, #0
 800320e:	4606      	mov	r6, r0
 8003210:	db01      	blt.n	8003216 <_malloc_r+0x1a>
 8003212:	42a9      	cmp	r1, r5
 8003214:	d903      	bls.n	800321e <_malloc_r+0x22>
 8003216:	230c      	movs	r3, #12
 8003218:	6033      	str	r3, [r6, #0]
 800321a:	2000      	movs	r0, #0
 800321c:	bd70      	pop	{r4, r5, r6, pc}
 800321e:	f000 fd77 	bl	8003d10 <__malloc_lock>
 8003222:	4a21      	ldr	r2, [pc, #132]	; (80032a8 <_malloc_r+0xac>)
 8003224:	6814      	ldr	r4, [r2, #0]
 8003226:	4621      	mov	r1, r4
 8003228:	b991      	cbnz	r1, 8003250 <_malloc_r+0x54>
 800322a:	4c20      	ldr	r4, [pc, #128]	; (80032ac <_malloc_r+0xb0>)
 800322c:	6823      	ldr	r3, [r4, #0]
 800322e:	b91b      	cbnz	r3, 8003238 <_malloc_r+0x3c>
 8003230:	4630      	mov	r0, r6
 8003232:	f000 fb03 	bl	800383c <_sbrk_r>
 8003236:	6020      	str	r0, [r4, #0]
 8003238:	4629      	mov	r1, r5
 800323a:	4630      	mov	r0, r6
 800323c:	f000 fafe 	bl	800383c <_sbrk_r>
 8003240:	1c43      	adds	r3, r0, #1
 8003242:	d124      	bne.n	800328e <_malloc_r+0x92>
 8003244:	230c      	movs	r3, #12
 8003246:	4630      	mov	r0, r6
 8003248:	6033      	str	r3, [r6, #0]
 800324a:	f000 fd62 	bl	8003d12 <__malloc_unlock>
 800324e:	e7e4      	b.n	800321a <_malloc_r+0x1e>
 8003250:	680b      	ldr	r3, [r1, #0]
 8003252:	1b5b      	subs	r3, r3, r5
 8003254:	d418      	bmi.n	8003288 <_malloc_r+0x8c>
 8003256:	2b0b      	cmp	r3, #11
 8003258:	d90f      	bls.n	800327a <_malloc_r+0x7e>
 800325a:	600b      	str	r3, [r1, #0]
 800325c:	18cc      	adds	r4, r1, r3
 800325e:	50cd      	str	r5, [r1, r3]
 8003260:	4630      	mov	r0, r6
 8003262:	f000 fd56 	bl	8003d12 <__malloc_unlock>
 8003266:	f104 000b 	add.w	r0, r4, #11
 800326a:	1d23      	adds	r3, r4, #4
 800326c:	f020 0007 	bic.w	r0, r0, #7
 8003270:	1ac3      	subs	r3, r0, r3
 8003272:	d0d3      	beq.n	800321c <_malloc_r+0x20>
 8003274:	425a      	negs	r2, r3
 8003276:	50e2      	str	r2, [r4, r3]
 8003278:	e7d0      	b.n	800321c <_malloc_r+0x20>
 800327a:	684b      	ldr	r3, [r1, #4]
 800327c:	428c      	cmp	r4, r1
 800327e:	bf16      	itet	ne
 8003280:	6063      	strne	r3, [r4, #4]
 8003282:	6013      	streq	r3, [r2, #0]
 8003284:	460c      	movne	r4, r1
 8003286:	e7eb      	b.n	8003260 <_malloc_r+0x64>
 8003288:	460c      	mov	r4, r1
 800328a:	6849      	ldr	r1, [r1, #4]
 800328c:	e7cc      	b.n	8003228 <_malloc_r+0x2c>
 800328e:	1cc4      	adds	r4, r0, #3
 8003290:	f024 0403 	bic.w	r4, r4, #3
 8003294:	42a0      	cmp	r0, r4
 8003296:	d005      	beq.n	80032a4 <_malloc_r+0xa8>
 8003298:	1a21      	subs	r1, r4, r0
 800329a:	4630      	mov	r0, r6
 800329c:	f000 face 	bl	800383c <_sbrk_r>
 80032a0:	3001      	adds	r0, #1
 80032a2:	d0cf      	beq.n	8003244 <_malloc_r+0x48>
 80032a4:	6025      	str	r5, [r4, #0]
 80032a6:	e7db      	b.n	8003260 <_malloc_r+0x64>
 80032a8:	20000090 	.word	0x20000090
 80032ac:	20000094 	.word	0x20000094

080032b0 <__sfputc_r>:
 80032b0:	6893      	ldr	r3, [r2, #8]
 80032b2:	b410      	push	{r4}
 80032b4:	3b01      	subs	r3, #1
 80032b6:	2b00      	cmp	r3, #0
 80032b8:	6093      	str	r3, [r2, #8]
 80032ba:	da07      	bge.n	80032cc <__sfputc_r+0x1c>
 80032bc:	6994      	ldr	r4, [r2, #24]
 80032be:	42a3      	cmp	r3, r4
 80032c0:	db01      	blt.n	80032c6 <__sfputc_r+0x16>
 80032c2:	290a      	cmp	r1, #10
 80032c4:	d102      	bne.n	80032cc <__sfputc_r+0x1c>
 80032c6:	bc10      	pop	{r4}
 80032c8:	f000 bb0c 	b.w	80038e4 <__swbuf_r>
 80032cc:	6813      	ldr	r3, [r2, #0]
 80032ce:	1c58      	adds	r0, r3, #1
 80032d0:	6010      	str	r0, [r2, #0]
 80032d2:	7019      	strb	r1, [r3, #0]
 80032d4:	4608      	mov	r0, r1
 80032d6:	bc10      	pop	{r4}
 80032d8:	4770      	bx	lr

080032da <__sfputs_r>:
 80032da:	b5f8      	push	{r3, r4, r5, r6, r7, lr}
 80032dc:	4606      	mov	r6, r0
 80032de:	460f      	mov	r7, r1
 80032e0:	4614      	mov	r4, r2
 80032e2:	18d5      	adds	r5, r2, r3
 80032e4:	42ac      	cmp	r4, r5
 80032e6:	d101      	bne.n	80032ec <__sfputs_r+0x12>
 80032e8:	2000      	movs	r0, #0
 80032ea:	e007      	b.n	80032fc <__sfputs_r+0x22>
 80032ec:	463a      	mov	r2, r7
 80032ee:	f814 1b01 	ldrb.w	r1, [r4], #1
 80032f2:	4630      	mov	r0, r6
 80032f4:	f7ff ffdc 	bl	80032b0 <__sfputc_r>
 80032f8:	1c43      	adds	r3, r0, #1
 80032fa:	d1f3      	bne.n	80032e4 <__sfputs_r+0xa>
 80032fc:	bdf8      	pop	{r3, r4, r5, r6, r7, pc}
	...

08003300 <_vfiprintf_r>:
 8003300:	e92d 4ff0 	stmdb	sp!, {r4, r5, r6, r7, r8, r9, sl, fp, lr}
 8003304:	460c      	mov	r4, r1
 8003306:	b09d      	sub	sp, #116	; 0x74
 8003308:	4617      	mov	r7, r2
 800330a:	461d      	mov	r5, r3
 800330c:	4606      	mov	r6, r0
 800330e:	b118      	cbz	r0, 8003318 <_vfiprintf_r+0x18>
 8003310:	6983      	ldr	r3, [r0, #24]
 8003312:	b90b      	cbnz	r3, 8003318 <_vfiprintf_r+0x18>
 8003314:	f7ff fee8 	bl	80030e8 <__sinit>
 8003318:	4b7c      	ldr	r3, [pc, #496]	; (800350c <_vfiprintf_r+0x20c>)
 800331a:	429c      	cmp	r4, r3
 800331c:	d158      	bne.n	80033d0 <_vfiprintf_r+0xd0>
 800331e:	6874      	ldr	r4, [r6, #4]
 8003320:	89a3      	ldrh	r3, [r4, #12]
 8003322:	0718      	lsls	r0, r3, #28
 8003324:	d55e      	bpl.n	80033e4 <_vfiprintf_r+0xe4>
 8003326:	6923      	ldr	r3, [r4, #16]
 8003328:	2b00      	cmp	r3, #0
 800332a:	d05b      	beq.n	80033e4 <_vfiprintf_r+0xe4>
 800332c:	2300      	movs	r3, #0
 800332e:	9309      	str	r3, [sp, #36]	; 0x24
 8003330:	2320      	movs	r3, #32
 8003332:	f88d 3029 	strb.w	r3, [sp, #41]	; 0x29
 8003336:	2330      	movs	r3, #48	; 0x30
 8003338:	f04f 0b01 	mov.w	fp, #1
 800333c:	f88d 302a 	strb.w	r3, [sp, #42]	; 0x2a
 8003340:	9503      	str	r5, [sp, #12]
 8003342:	46b8      	mov	r8, r7
 8003344:	4645      	mov	r5, r8
 8003346:	f815 3b01 	ldrb.w	r3, [r5], #1
 800334a:	b10b      	cbz	r3, 8003350 <_vfiprintf_r+0x50>
 800334c:	2b25      	cmp	r3, #37	; 0x25
 800334e:	d154      	bne.n	80033fa <_vfiprintf_r+0xfa>
 8003350:	ebb8 0a07 	subs.w	sl, r8, r7
 8003354:	d00b      	beq.n	800336e <_vfiprintf_r+0x6e>
 8003356:	4653      	mov	r3, sl
 8003358:	463a      	mov	r2, r7
 800335a:	4621      	mov	r1, r4
 800335c:	4630      	mov	r0, r6
 800335e:	f7ff ffbc 	bl	80032da <__sfputs_r>
 8003362:	3001      	adds	r0, #1
 8003364:	f000 80c2 	beq.w	80034ec <_vfiprintf_r+0x1ec>
 8003368:	9b09      	ldr	r3, [sp, #36]	; 0x24
 800336a:	4453      	add	r3, sl
 800336c:	9309      	str	r3, [sp, #36]	; 0x24
 800336e:	f898 3000 	ldrb.w	r3, [r8]
 8003372:	2b00      	cmp	r3, #0
 8003374:	f000 80ba 	beq.w	80034ec <_vfiprintf_r+0x1ec>
 8003378:	2300      	movs	r3, #0
 800337a:	f04f 32ff 	mov.w	r2, #4294967295
 800337e:	e9cd 2305 	strd	r2, r3, [sp, #20]
 8003382:	9304      	str	r3, [sp, #16]
 8003384:	9307      	str	r3, [sp, #28]
 8003386:	f88d 3053 	strb.w	r3, [sp, #83]	; 0x53
 800338a:	931a      	str	r3, [sp, #104]	; 0x68
 800338c:	46a8      	mov	r8, r5
 800338e:	2205      	movs	r2, #5
 8003390:	f818 1b01 	ldrb.w	r1, [r8], #1
 8003394:	485e      	ldr	r0, [pc, #376]	; (8003510 <_vfiprintf_r+0x210>)
 8003396:	f000 fcad 	bl	8003cf4 <memchr>
 800339a:	9b04      	ldr	r3, [sp, #16]
 800339c:	bb78      	cbnz	r0, 80033fe <_vfiprintf_r+0xfe>
 800339e:	06d9      	lsls	r1, r3, #27
 80033a0:	bf44      	itt	mi
 80033a2:	2220      	movmi	r2, #32
 80033a4:	f88d 2053 	strbmi.w	r2, [sp, #83]	; 0x53
 80033a8:	071a      	lsls	r2, r3, #28
 80033aa:	bf44      	itt	mi
 80033ac:	222b      	movmi	r2, #43	; 0x2b
 80033ae:	f88d 2053 	strbmi.w	r2, [sp, #83]	; 0x53
 80033b2:	782a      	ldrb	r2, [r5, #0]
 80033b4:	2a2a      	cmp	r2, #42	; 0x2a
 80033b6:	d02a      	beq.n	800340e <_vfiprintf_r+0x10e>
 80033b8:	46a8      	mov	r8, r5
 80033ba:	2000      	movs	r0, #0
 80033bc:	250a      	movs	r5, #10
 80033be:	9a07      	ldr	r2, [sp, #28]
 80033c0:	4641      	mov	r1, r8
 80033c2:	f811 3b01 	ldrb.w	r3, [r1], #1
 80033c6:	3b30      	subs	r3, #48	; 0x30
 80033c8:	2b09      	cmp	r3, #9
 80033ca:	d969      	bls.n	80034a0 <_vfiprintf_r+0x1a0>
 80033cc:	b360      	cbz	r0, 8003428 <_vfiprintf_r+0x128>
 80033ce:	e024      	b.n	800341a <_vfiprintf_r+0x11a>
 80033d0:	4b50      	ldr	r3, [pc, #320]	; (8003514 <_vfiprintf_r+0x214>)
 80033d2:	429c      	cmp	r4, r3
 80033d4:	d101      	bne.n	80033da <_vfiprintf_r+0xda>
 80033d6:	68b4      	ldr	r4, [r6, #8]
 80033d8:	e7a2      	b.n	8003320 <_vfiprintf_r+0x20>
 80033da:	4b4f      	ldr	r3, [pc, #316]	; (8003518 <_vfiprintf_r+0x218>)
 80033dc:	429c      	cmp	r4, r3
 80033de:	bf08      	it	eq
 80033e0:	68f4      	ldreq	r4, [r6, #12]
 80033e2:	e79d      	b.n	8003320 <_vfiprintf_r+0x20>
 80033e4:	4621      	mov	r1, r4
 80033e6:	4630      	mov	r0, r6
 80033e8:	f000 fae0 	bl	80039ac <__swsetup_r>
 80033ec:	2800      	cmp	r0, #0
 80033ee:	d09d      	beq.n	800332c <_vfiprintf_r+0x2c>
 80033f0:	f04f 30ff 	mov.w	r0, #4294967295
 80033f4:	b01d      	add	sp, #116	; 0x74
 80033f6:	e8bd 8ff0 	ldmia.w	sp!, {r4, r5, r6, r7, r8, r9, sl, fp, pc}
 80033fa:	46a8      	mov	r8, r5
 80033fc:	e7a2      	b.n	8003344 <_vfiprintf_r+0x44>
 80033fe:	4a44      	ldr	r2, [pc, #272]	; (8003510 <_vfiprintf_r+0x210>)
 8003400:	4645      	mov	r5, r8
 8003402:	1a80      	subs	r0, r0, r2
 8003404:	fa0b f000 	lsl.w	r0, fp, r0
 8003408:	4318      	orrs	r0, r3
 800340a:	9004      	str	r0, [sp, #16]
 800340c:	e7be      	b.n	800338c <_vfiprintf_r+0x8c>
 800340e:	9a03      	ldr	r2, [sp, #12]
 8003410:	1d11      	adds	r1, r2, #4
 8003412:	6812      	ldr	r2, [r2, #0]
 8003414:	9103      	str	r1, [sp, #12]
 8003416:	2a00      	cmp	r2, #0
 8003418:	db01      	blt.n	800341e <_vfiprintf_r+0x11e>
 800341a:	9207      	str	r2, [sp, #28]
 800341c:	e004      	b.n	8003428 <_vfiprintf_r+0x128>
 800341e:	4252      	negs	r2, r2
 8003420:	f043 0302 	orr.w	r3, r3, #2
 8003424:	9207      	str	r2, [sp, #28]
 8003426:	9304      	str	r3, [sp, #16]
 8003428:	f898 3000 	ldrb.w	r3, [r8]
 800342c:	2b2e      	cmp	r3, #46	; 0x2e
 800342e:	d10e      	bne.n	800344e <_vfiprintf_r+0x14e>
 8003430:	f898 3001 	ldrb.w	r3, [r8, #1]
 8003434:	2b2a      	cmp	r3, #42	; 0x2a
 8003436:	d138      	bne.n	80034aa <_vfiprintf_r+0x1aa>
 8003438:	9b03      	ldr	r3, [sp, #12]
 800343a:	f108 0802 	add.w	r8, r8, #2
 800343e:	1d1a      	adds	r2, r3, #4
 8003440:	681b      	ldr	r3, [r3, #0]
 8003442:	9203      	str	r2, [sp, #12]
 8003444:	2b00      	cmp	r3, #0
 8003446:	bfb8      	it	lt
 8003448:	f04f 33ff 	movlt.w	r3, #4294967295
 800344c:	9305      	str	r3, [sp, #20]
 800344e:	4d33      	ldr	r5, [pc, #204]	; (800351c <_vfiprintf_r+0x21c>)
 8003450:	2203      	movs	r2, #3
 8003452:	f898 1000 	ldrb.w	r1, [r8]
 8003456:	4628      	mov	r0, r5
 8003458:	f000 fc4c 	bl	8003cf4 <memchr>
 800345c:	b140      	cbz	r0, 8003470 <_vfiprintf_r+0x170>
 800345e:	2340      	movs	r3, #64	; 0x40
 8003460:	1b40      	subs	r0, r0, r5
 8003462:	fa03 f000 	lsl.w	r0, r3, r0
 8003466:	9b04      	ldr	r3, [sp, #16]
 8003468:	f108 0801 	add.w	r8, r8, #1
 800346c:	4303      	orrs	r3, r0
 800346e:	9304      	str	r3, [sp, #16]
 8003470:	f898 1000 	ldrb.w	r1, [r8]
 8003474:	2206      	movs	r2, #6
 8003476:	482a      	ldr	r0, [pc, #168]	; (8003520 <_vfiprintf_r+0x220>)
 8003478:	f108 0701 	add.w	r7, r8, #1
 800347c:	f88d 1028 	strb.w	r1, [sp, #40]	; 0x28
 8003480:	f000 fc38 	bl	8003cf4 <memchr>
 8003484:	2800      	cmp	r0, #0
 8003486:	d037      	beq.n	80034f8 <_vfiprintf_r+0x1f8>
 8003488:	4b26      	ldr	r3, [pc, #152]	; (8003524 <_vfiprintf_r+0x224>)
 800348a:	bb1b      	cbnz	r3, 80034d4 <_vfiprintf_r+0x1d4>
 800348c:	9b03      	ldr	r3, [sp, #12]
 800348e:	3307      	adds	r3, #7
 8003490:	f023 0307 	bic.w	r3, r3, #7
 8003494:	3308      	adds	r3, #8
 8003496:	9303      	str	r3, [sp, #12]
 8003498:	9b09      	ldr	r3, [sp, #36]	; 0x24
 800349a:	444b      	add	r3, r9
 800349c:	9309      	str	r3, [sp, #36]	; 0x24
 800349e:	e750      	b.n	8003342 <_vfiprintf_r+0x42>
 80034a0:	fb05 3202 	mla	r2, r5, r2, r3
 80034a4:	2001      	movs	r0, #1
 80034a6:	4688      	mov	r8, r1
 80034a8:	e78a      	b.n	80033c0 <_vfiprintf_r+0xc0>
 80034aa:	2300      	movs	r3, #0
 80034ac:	250a      	movs	r5, #10
 80034ae:	4619      	mov	r1, r3
 80034b0:	f108 0801 	add.w	r8, r8, #1
 80034b4:	9305      	str	r3, [sp, #20]
 80034b6:	4640      	mov	r0, r8
 80034b8:	f810 2b01 	ldrb.w	r2, [r0], #1
 80034bc:	3a30      	subs	r2, #48	; 0x30
 80034be:	2a09      	cmp	r2, #9
 80034c0:	d903      	bls.n	80034ca <_vfiprintf_r+0x1ca>
 80034c2:	2b00      	cmp	r3, #0
 80034c4:	d0c3      	beq.n	800344e <_vfiprintf_r+0x14e>
 80034c6:	9105      	str	r1, [sp, #20]
 80034c8:	e7c1      	b.n	800344e <_vfiprintf_r+0x14e>
 80034ca:	fb05 2101 	mla	r1, r5, r1, r2
 80034ce:	2301      	movs	r3, #1
 80034d0:	4680      	mov	r8, r0
 80034d2:	e7f0      	b.n	80034b6 <_vfiprintf_r+0x1b6>
 80034d4:	ab03      	add	r3, sp, #12
 80034d6:	9300      	str	r3, [sp, #0]
 80034d8:	4622      	mov	r2, r4
 80034da:	4b13      	ldr	r3, [pc, #76]	; (8003528 <_vfiprintf_r+0x228>)
 80034dc:	a904      	add	r1, sp, #16
 80034de:	4630      	mov	r0, r6
 80034e0:	f3af 8000 	nop.w
 80034e4:	f1b0 3fff 	cmp.w	r0, #4294967295
 80034e8:	4681      	mov	r9, r0
 80034ea:	d1d5      	bne.n	8003498 <_vfiprintf_r+0x198>
 80034ec:	89a3      	ldrh	r3, [r4, #12]
 80034ee:	065b      	lsls	r3, r3, #25
 80034f0:	f53f af7e 	bmi.w	80033f0 <_vfiprintf_r+0xf0>
 80034f4:	9809      	ldr	r0, [sp, #36]	; 0x24
 80034f6:	e77d      	b.n	80033f4 <_vfiprintf_r+0xf4>
 80034f8:	ab03      	add	r3, sp, #12
 80034fa:	9300      	str	r3, [sp, #0]
 80034fc:	4622      	mov	r2, r4
 80034fe:	4b0a      	ldr	r3, [pc, #40]	; (8003528 <_vfiprintf_r+0x228>)
 8003500:	a904      	add	r1, sp, #16
 8003502:	4630      	mov	r0, r6
 8003504:	f000 f888 	bl	8003618 <_printf_i>
 8003508:	e7ec      	b.n	80034e4 <_vfiprintf_r+0x1e4>
 800350a:	bf00      	nop
 800350c:	08003e98 	.word	0x08003e98
 8003510:	08003ed8 	.word	0x08003ed8
 8003514:	08003eb8 	.word	0x08003eb8
 8003518:	08003e78 	.word	0x08003e78
 800351c:	08003ede 	.word	0x08003ede
 8003520:	08003ee2 	.word	0x08003ee2
 8003524:	00000000 	.word	0x00000000
 8003528:	080032db 	.word	0x080032db

0800352c <_printf_common>:
 800352c:	e92d 47f0 	stmdb	sp!, {r4, r5, r6, r7, r8, r9, sl, lr}
 8003530:	4691      	mov	r9, r2
 8003532:	461f      	mov	r7, r3
 8003534:	688a      	ldr	r2, [r1, #8]
 8003536:	690b      	ldr	r3, [r1, #16]
 8003538:	4606      	mov	r6, r0
 800353a:	4293      	cmp	r3, r2
 800353c:	bfb8      	it	lt
 800353e:	4613      	movlt	r3, r2
 8003540:	f8c9 3000 	str.w	r3, [r9]
 8003544:	f891 2043 	ldrb.w	r2, [r1, #67]	; 0x43
 8003548:	460c      	mov	r4, r1
 800354a:	f8dd 8020 	ldr.w	r8, [sp, #32]
 800354e:	b112      	cbz	r2, 8003556 <_printf_common+0x2a>
 8003550:	3301      	adds	r3, #1
 8003552:	f8c9 3000 	str.w	r3, [r9]
 8003556:	6823      	ldr	r3, [r4, #0]
 8003558:	0699      	lsls	r1, r3, #26
 800355a:	bf42      	ittt	mi
 800355c:	f8d9 3000 	ldrmi.w	r3, [r9]
 8003560:	3302      	addmi	r3, #2
 8003562:	f8c9 3000 	strmi.w	r3, [r9]
 8003566:	6825      	ldr	r5, [r4, #0]
 8003568:	f015 0506 	ands.w	r5, r5, #6
 800356c:	d107      	bne.n	800357e <_printf_common+0x52>
 800356e:	f104 0a19 	add.w	sl, r4, #25
 8003572:	68e3      	ldr	r3, [r4, #12]
 8003574:	f8d9 2000 	ldr.w	r2, [r9]
 8003578:	1a9b      	subs	r3, r3, r2
 800357a:	42ab      	cmp	r3, r5
 800357c:	dc29      	bgt.n	80035d2 <_printf_common+0xa6>
 800357e:	f894 3043 	ldrb.w	r3, [r4, #67]	; 0x43
 8003582:	6822      	ldr	r2, [r4, #0]
 8003584:	3300      	adds	r3, #0
 8003586:	bf18      	it	ne
 8003588:	2301      	movne	r3, #1
 800358a:	0692      	lsls	r2, r2, #26
 800358c:	d42e      	bmi.n	80035ec <_printf_common+0xc0>
 800358e:	f104 0243 	add.w	r2, r4, #67	; 0x43
 8003592:	4639      	mov	r1, r7
 8003594:	4630      	mov	r0, r6
 8003596:	47c0      	blx	r8
 8003598:	3001      	adds	r0, #1
 800359a:	d021      	beq.n	80035e0 <_printf_common+0xb4>
 800359c:	6823      	ldr	r3, [r4, #0]
 800359e:	68e5      	ldr	r5, [r4, #12]
 80035a0:	f003 0306 	and.w	r3, r3, #6
 80035a4:	2b04      	cmp	r3, #4
 80035a6:	bf18      	it	ne
 80035a8:	2500      	movne	r5, #0
 80035aa:	f8d9 2000 	ldr.w	r2, [r9]
 80035ae:	f04f 0900 	mov.w	r9, #0
 80035b2:	bf08      	it	eq
 80035b4:	1aad      	subeq	r5, r5, r2
 80035b6:	68a3      	ldr	r3, [r4, #8]
 80035b8:	6922      	ldr	r2, [r4, #16]
 80035ba:	bf08      	it	eq
 80035bc:	ea25 75e5 	biceq.w	r5, r5, r5, asr #31
 80035c0:	4293      	cmp	r3, r2
 80035c2:	bfc4      	itt	gt
 80035c4:	1a9b      	subgt	r3, r3, r2
 80035c6:	18ed      	addgt	r5, r5, r3
 80035c8:	341a      	adds	r4, #26
 80035ca:	454d      	cmp	r5, r9
 80035cc:	d11a      	bne.n	8003604 <_printf_common+0xd8>
 80035ce:	2000      	movs	r0, #0
 80035d0:	e008      	b.n	80035e4 <_printf_common+0xb8>
 80035d2:	2301      	movs	r3, #1
 80035d4:	4652      	mov	r2, sl
 80035d6:	4639      	mov	r1, r7
 80035d8:	4630      	mov	r0, r6
 80035da:	47c0      	blx	r8
 80035dc:	3001      	adds	r0, #1
 80035de:	d103      	bne.n	80035e8 <_printf_common+0xbc>
 80035e0:	f04f 30ff 	mov.w	r0, #4294967295
 80035e4:	e8bd 87f0 	ldmia.w	sp!, {r4, r5, r6, r7, r8, r9, sl, pc}
 80035e8:	3501      	adds	r5, #1
 80035ea:	e7c2      	b.n	8003572 <_printf_common+0x46>
 80035ec:	2030      	movs	r0, #48	; 0x30
 80035ee:	18e1      	adds	r1, r4, r3
 80035f0:	f881 0043 	strb.w	r0, [r1, #67]	; 0x43
 80035f4:	1c5a      	adds	r2, r3, #1
 80035f6:	f894 1045 	ldrb.w	r1, [r4, #69]	; 0x45
 80035fa:	4422      	add	r2, r4
 80035fc:	3302      	adds	r3, #2
 80035fe:	f882 1043 	strb.w	r1, [r2, #67]	; 0x43
 8003602:	e7c4      	b.n	800358e <_printf_common+0x62>
 8003604:	2301      	movs	r3, #1
 8003606:	4622      	mov	r2, r4
 8003608:	4639      	mov	r1, r7
 800360a:	4630      	mov	r0, r6
 800360c:	47c0      	blx	r8
 800360e:	3001      	adds	r0, #1
 8003610:	d0e6      	beq.n	80035e0 <_printf_common+0xb4>
 8003612:	f109 0901 	add.w	r9, r9, #1
 8003616:	e7d8      	b.n	80035ca <_printf_common+0x9e>

08003618 <_printf_i>:
 8003618:	e92d 43f0 	stmdb	sp!, {r4, r5, r6, r7, r8, r9, lr}
 800361c:	f101 0c43 	add.w	ip, r1, #67	; 0x43
 8003620:	460c      	mov	r4, r1
 8003622:	7e09      	ldrb	r1, [r1, #24]
 8003624:	b085      	sub	sp, #20
 8003626:	296e      	cmp	r1, #110	; 0x6e
 8003628:	4617      	mov	r7, r2
 800362a:	4606      	mov	r6, r0
 800362c:	4698      	mov	r8, r3
 800362e:	9a0c      	ldr	r2, [sp, #48]	; 0x30
 8003630:	f000 80b3 	beq.w	800379a <_printf_i+0x182>
 8003634:	d822      	bhi.n	800367c <_printf_i+0x64>
 8003636:	2963      	cmp	r1, #99	; 0x63
 8003638:	d036      	beq.n	80036a8 <_printf_i+0x90>
 800363a:	d80a      	bhi.n	8003652 <_printf_i+0x3a>
 800363c:	2900      	cmp	r1, #0
 800363e:	f000 80b9 	beq.w	80037b4 <_printf_i+0x19c>
 8003642:	2958      	cmp	r1, #88	; 0x58
 8003644:	f000 8083 	beq.w	800374e <_printf_i+0x136>
 8003648:	f104 0542 	add.w	r5, r4, #66	; 0x42
 800364c:	f884 1042 	strb.w	r1, [r4, #66]	; 0x42
 8003650:	e032      	b.n	80036b8 <_printf_i+0xa0>
 8003652:	2964      	cmp	r1, #100	; 0x64
 8003654:	d001      	beq.n	800365a <_printf_i+0x42>
 8003656:	2969      	cmp	r1, #105	; 0x69
 8003658:	d1f6      	bne.n	8003648 <_printf_i+0x30>
 800365a:	6820      	ldr	r0, [r4, #0]
 800365c:	6813      	ldr	r3, [r2, #0]
 800365e:	0605      	lsls	r5, r0, #24
 8003660:	f103 0104 	add.w	r1, r3, #4
 8003664:	d52a      	bpl.n	80036bc <_printf_i+0xa4>
 8003666:	681b      	ldr	r3, [r3, #0]
 8003668:	6011      	str	r1, [r2, #0]
 800366a:	2b00      	cmp	r3, #0
 800366c:	da03      	bge.n	8003676 <_printf_i+0x5e>
 800366e:	222d      	movs	r2, #45	; 0x2d
 8003670:	425b      	negs	r3, r3
 8003672:	f884 2043 	strb.w	r2, [r4, #67]	; 0x43
 8003676:	486f      	ldr	r0, [pc, #444]	; (8003834 <_printf_i+0x21c>)
 8003678:	220a      	movs	r2, #10
 800367a:	e039      	b.n	80036f0 <_printf_i+0xd8>
 800367c:	2973      	cmp	r1, #115	; 0x73
 800367e:	f000 809d 	beq.w	80037bc <_printf_i+0x1a4>
 8003682:	d808      	bhi.n	8003696 <_printf_i+0x7e>
 8003684:	296f      	cmp	r1, #111	; 0x6f
 8003686:	d020      	beq.n	80036ca <_printf_i+0xb2>
 8003688:	2970      	cmp	r1, #112	; 0x70
 800368a:	d1dd      	bne.n	8003648 <_printf_i+0x30>
 800368c:	6823      	ldr	r3, [r4, #0]
 800368e:	f043 0320 	orr.w	r3, r3, #32
 8003692:	6023      	str	r3, [r4, #0]
 8003694:	e003      	b.n	800369e <_printf_i+0x86>
 8003696:	2975      	cmp	r1, #117	; 0x75
 8003698:	d017      	beq.n	80036ca <_printf_i+0xb2>
 800369a:	2978      	cmp	r1, #120	; 0x78
 800369c:	d1d4      	bne.n	8003648 <_printf_i+0x30>
 800369e:	2378      	movs	r3, #120	; 0x78
 80036a0:	4865      	ldr	r0, [pc, #404]	; (8003838 <_printf_i+0x220>)
 80036a2:	f884 3045 	strb.w	r3, [r4, #69]	; 0x45
 80036a6:	e055      	b.n	8003754 <_printf_i+0x13c>
 80036a8:	6813      	ldr	r3, [r2, #0]
 80036aa:	f104 0542 	add.w	r5, r4, #66	; 0x42
 80036ae:	1d19      	adds	r1, r3, #4
 80036b0:	681b      	ldr	r3, [r3, #0]
 80036b2:	6011      	str	r1, [r2, #0]
 80036b4:	f884 3042 	strb.w	r3, [r4, #66]	; 0x42
 80036b8:	2301      	movs	r3, #1
 80036ba:	e08c      	b.n	80037d6 <_printf_i+0x1be>
 80036bc:	681b      	ldr	r3, [r3, #0]
 80036be:	f010 0f40 	tst.w	r0, #64	; 0x40
 80036c2:	6011      	str	r1, [r2, #0]
 80036c4:	bf18      	it	ne
 80036c6:	b21b      	sxthne	r3, r3
 80036c8:	e7cf      	b.n	800366a <_printf_i+0x52>
 80036ca:	6813      	ldr	r3, [r2, #0]
 80036cc:	6825      	ldr	r5, [r4, #0]
 80036ce:	1d18      	adds	r0, r3, #4
 80036d0:	6010      	str	r0, [r2, #0]
 80036d2:	0628      	lsls	r0, r5, #24
 80036d4:	d501      	bpl.n	80036da <_printf_i+0xc2>
 80036d6:	681b      	ldr	r3, [r3, #0]
 80036d8:	e002      	b.n	80036e0 <_printf_i+0xc8>
 80036da:	0668      	lsls	r0, r5, #25
 80036dc:	d5fb      	bpl.n	80036d6 <_printf_i+0xbe>
 80036de:	881b      	ldrh	r3, [r3, #0]
 80036e0:	296f      	cmp	r1, #111	; 0x6f
 80036e2:	bf14      	ite	ne
 80036e4:	220a      	movne	r2, #10
 80036e6:	2208      	moveq	r2, #8
 80036e8:	4852      	ldr	r0, [pc, #328]	; (8003834 <_printf_i+0x21c>)
 80036ea:	2100      	movs	r1, #0
 80036ec:	f884 1043 	strb.w	r1, [r4, #67]	; 0x43
 80036f0:	6865      	ldr	r5, [r4, #4]
 80036f2:	2d00      	cmp	r5, #0
 80036f4:	60a5      	str	r5, [r4, #8]
 80036f6:	f2c0 8095 	blt.w	8003824 <_printf_i+0x20c>
 80036fa:	6821      	ldr	r1, [r4, #0]
 80036fc:	f021 0104 	bic.w	r1, r1, #4
 8003700:	6021      	str	r1, [r4, #0]
 8003702:	2b00      	cmp	r3, #0
 8003704:	d13d      	bne.n	8003782 <_printf_i+0x16a>
 8003706:	2d00      	cmp	r5, #0
 8003708:	f040 808e 	bne.w	8003828 <_printf_i+0x210>
 800370c:	4665      	mov	r5, ip
 800370e:	2a08      	cmp	r2, #8
 8003710:	d10b      	bne.n	800372a <_printf_i+0x112>
 8003712:	6823      	ldr	r3, [r4, #0]
 8003714:	07db      	lsls	r3, r3, #31
 8003716:	d508      	bpl.n	800372a <_printf_i+0x112>
 8003718:	6923      	ldr	r3, [r4, #16]
 800371a:	6862      	ldr	r2, [r4, #4]
 800371c:	429a      	cmp	r2, r3
 800371e:	bfde      	ittt	le
 8003720:	2330      	movle	r3, #48	; 0x30
 8003722:	f805 3c01 	strble.w	r3, [r5, #-1]
 8003726:	f105 35ff 	addle.w	r5, r5, #4294967295
 800372a:	ebac 0305 	sub.w	r3, ip, r5
 800372e:	6123      	str	r3, [r4, #16]
 8003730:	f8cd 8000 	str.w	r8, [sp]
 8003734:	463b      	mov	r3, r7
 8003736:	aa03      	add	r2, sp, #12
 8003738:	4621      	mov	r1, r4
 800373a:	4630      	mov	r0, r6
 800373c:	f7ff fef6 	bl	800352c <_printf_common>
 8003740:	3001      	adds	r0, #1
 8003742:	d14d      	bne.n	80037e0 <_printf_i+0x1c8>
 8003744:	f04f 30ff 	mov.w	r0, #4294967295
 8003748:	b005      	add	sp, #20
 800374a:	e8bd 83f0 	ldmia.w	sp!, {r4, r5, r6, r7, r8, r9, pc}
 800374e:	4839      	ldr	r0, [pc, #228]	; (8003834 <_printf_i+0x21c>)
 8003750:	f884 1045 	strb.w	r1, [r4, #69]	; 0x45
 8003754:	6813      	ldr	r3, [r2, #0]
 8003756:	6821      	ldr	r1, [r4, #0]
 8003758:	1d1d      	adds	r5, r3, #4
 800375a:	681b      	ldr	r3, [r3, #0]
 800375c:	6015      	str	r5, [r2, #0]
 800375e:	060a      	lsls	r2, r1, #24
 8003760:	d50b      	bpl.n	800377a <_printf_i+0x162>
 8003762:	07ca      	lsls	r2, r1, #31
 8003764:	bf44      	itt	mi
 8003766:	f041 0120 	orrmi.w	r1, r1, #32
 800376a:	6021      	strmi	r1, [r4, #0]
 800376c:	b91b      	cbnz	r3, 8003776 <_printf_i+0x15e>
 800376e:	6822      	ldr	r2, [r4, #0]
 8003770:	f022 0220 	bic.w	r2, r2, #32
 8003774:	6022      	str	r2, [r4, #0]
 8003776:	2210      	movs	r2, #16
 8003778:	e7b7      	b.n	80036ea <_printf_i+0xd2>
 800377a:	064d      	lsls	r5, r1, #25
 800377c:	bf48      	it	mi
 800377e:	b29b      	uxthmi	r3, r3
 8003780:	e7ef      	b.n	8003762 <_printf_i+0x14a>
 8003782:	4665      	mov	r5, ip
 8003784:	fbb3 f1f2 	udiv	r1, r3, r2
 8003788:	fb02 3311 	mls	r3, r2, r1, r3
 800378c:	5cc3      	ldrb	r3, [r0, r3]
 800378e:	f805 3d01 	strb.w	r3, [r5, #-1]!
 8003792:	460b      	mov	r3, r1
 8003794:	2900      	cmp	r1, #0
 8003796:	d1f5      	bne.n	8003784 <_printf_i+0x16c>
 8003798:	e7b9      	b.n	800370e <_printf_i+0xf6>
 800379a:	6813      	ldr	r3, [r2, #0]
 800379c:	6825      	ldr	r5, [r4, #0]
 800379e:	1d18      	adds	r0, r3, #4
 80037a0:	6961      	ldr	r1, [r4, #20]
 80037a2:	6010      	str	r0, [r2, #0]
 80037a4:	0628      	lsls	r0, r5, #24
 80037a6:	681b      	ldr	r3, [r3, #0]
 80037a8:	d501      	bpl.n	80037ae <_printf_i+0x196>
 80037aa:	6019      	str	r1, [r3, #0]
 80037ac:	e002      	b.n	80037b4 <_printf_i+0x19c>
 80037ae:	066a      	lsls	r2, r5, #25
 80037b0:	d5fb      	bpl.n	80037aa <_printf_i+0x192>
 80037b2:	8019      	strh	r1, [r3, #0]
 80037b4:	2300      	movs	r3, #0
 80037b6:	4665      	mov	r5, ip
 80037b8:	6123      	str	r3, [r4, #16]
 80037ba:	e7b9      	b.n	8003730 <_printf_i+0x118>
 80037bc:	6813      	ldr	r3, [r2, #0]
 80037be:	1d19      	adds	r1, r3, #4
 80037c0:	6011      	str	r1, [r2, #0]
 80037c2:	681d      	ldr	r5, [r3, #0]
 80037c4:	6862      	ldr	r2, [r4, #4]
 80037c6:	2100      	movs	r1, #0
 80037c8:	4628      	mov	r0, r5
 80037ca:	f000 fa93 	bl	8003cf4 <memchr>
 80037ce:	b108      	cbz	r0, 80037d4 <_printf_i+0x1bc>
 80037d0:	1b40      	subs	r0, r0, r5
 80037d2:	6060      	str	r0, [r4, #4]
 80037d4:	6863      	ldr	r3, [r4, #4]
 80037d6:	6123      	str	r3, [r4, #16]
 80037d8:	2300      	movs	r3, #0
 80037da:	f884 3043 	strb.w	r3, [r4, #67]	; 0x43
 80037de:	e7a7      	b.n	8003730 <_printf_i+0x118>
 80037e0:	6923      	ldr	r3, [r4, #16]
 80037e2:	462a      	mov	r2, r5
 80037e4:	4639      	mov	r1, r7
 80037e6:	4630      	mov	r0, r6
 80037e8:	47c0      	blx	r8
 80037ea:	3001      	adds	r0, #1
 80037ec:	d0aa      	beq.n	8003744 <_printf_i+0x12c>
 80037ee:	6823      	ldr	r3, [r4, #0]
 80037f0:	079b      	lsls	r3, r3, #30
 80037f2:	d413      	bmi.n	800381c <_printf_i+0x204>
 80037f4:	68e0      	ldr	r0, [r4, #12]
 80037f6:	9b03      	ldr	r3, [sp, #12]
 80037f8:	4298      	cmp	r0, r3
 80037fa:	bfb8      	it	lt
 80037fc:	4618      	movlt	r0, r3
 80037fe:	e7a3      	b.n	8003748 <_printf_i+0x130>
 8003800:	2301      	movs	r3, #1
 8003802:	464a      	mov	r2, r9
 8003804:	4639      	mov	r1, r7
 8003806:	4630      	mov	r0, r6
 8003808:	47c0      	blx	r8
 800380a:	3001      	adds	r0, #1
 800380c:	d09a      	beq.n	8003744 <_printf_i+0x12c>
 800380e:	3501      	adds	r5, #1
 8003810:	68e3      	ldr	r3, [r4, #12]
 8003812:	9a03      	ldr	r2, [sp, #12]
 8003814:	1a9b      	subs	r3, r3, r2
 8003816:	42ab      	cmp	r3, r5
 8003818:	dcf2      	bgt.n	8003800 <_printf_i+0x1e8>
 800381a:	e7eb      	b.n	80037f4 <_printf_i+0x1dc>
 800381c:	2500      	movs	r5, #0
 800381e:	f104 0919 	add.w	r9, r4, #25
 8003822:	e7f5      	b.n	8003810 <_printf_i+0x1f8>
 8003824:	2b00      	cmp	r3, #0
 8003826:	d1ac      	bne.n	8003782 <_printf_i+0x16a>
 8003828:	7803      	ldrb	r3, [r0, #0]
 800382a:	f104 0542 	add.w	r5, r4, #66	; 0x42
 800382e:	f884 3042 	strb.w	r3, [r4, #66]	; 0x42
 8003832:	e76c      	b.n	800370e <_printf_i+0xf6>
 8003834:	08003ee9 	.word	0x08003ee9
 8003838:	08003efa 	.word	0x08003efa

0800383c <_sbrk_r>:
 800383c:	b538      	push	{r3, r4, r5, lr}
 800383e:	2300      	movs	r3, #0
 8003840:	4c05      	ldr	r4, [pc, #20]	; (8003858 <_sbrk_r+0x1c>)
 8003842:	4605      	mov	r5, r0
 8003844:	4608      	mov	r0, r1
 8003846:	6023      	str	r3, [r4, #0]
 8003848:	f7fd f822 	bl	8000890 <_sbrk>
 800384c:	1c43      	adds	r3, r0, #1
 800384e:	d102      	bne.n	8003856 <_sbrk_r+0x1a>
 8003850:	6823      	ldr	r3, [r4, #0]
 8003852:	b103      	cbz	r3, 8003856 <_sbrk_r+0x1a>
 8003854:	602b      	str	r3, [r5, #0]
 8003856:	bd38      	pop	{r3, r4, r5, pc}
 8003858:	20000138 	.word	0x20000138

0800385c <__sread>:
 800385c:	b510      	push	{r4, lr}
 800385e:	460c      	mov	r4, r1
 8003860:	f9b1 100e 	ldrsh.w	r1, [r1, #14]
 8003864:	f000 faa2 	bl	8003dac <_read_r>
 8003868:	2800      	cmp	r0, #0
 800386a:	bfab      	itete	ge
 800386c:	6d63      	ldrge	r3, [r4, #84]	; 0x54
 800386e:	89a3      	ldrhlt	r3, [r4, #12]
 8003870:	181b      	addge	r3, r3, r0
 8003872:	f423 5380 	biclt.w	r3, r3, #4096	; 0x1000
 8003876:	bfac      	ite	ge
 8003878:	6563      	strge	r3, [r4, #84]	; 0x54
 800387a:	81a3      	strhlt	r3, [r4, #12]
 800387c:	bd10      	pop	{r4, pc}

0800387e <__swrite>:
 800387e:	e92d 41f0 	stmdb	sp!, {r4, r5, r6, r7, r8, lr}
 8003882:	461f      	mov	r7, r3
 8003884:	898b      	ldrh	r3, [r1, #12]
 8003886:	4605      	mov	r5, r0
 8003888:	05db      	lsls	r3, r3, #23
 800388a:	460c      	mov	r4, r1
 800388c:	4616      	mov	r6, r2
 800388e:	d505      	bpl.n	800389c <__swrite+0x1e>
 8003890:	2302      	movs	r3, #2
 8003892:	2200      	movs	r2, #0
 8003894:	f9b1 100e 	ldrsh.w	r1, [r1, #14]
 8003898:	f000 f9b6 	bl	8003c08 <_lseek_r>
 800389c:	89a3      	ldrh	r3, [r4, #12]
 800389e:	4632      	mov	r2, r6
 80038a0:	f423 5380 	bic.w	r3, r3, #4096	; 0x1000
 80038a4:	81a3      	strh	r3, [r4, #12]
 80038a6:	f9b4 100e 	ldrsh.w	r1, [r4, #14]
 80038aa:	463b      	mov	r3, r7
 80038ac:	4628      	mov	r0, r5
 80038ae:	e8bd 41f0 	ldmia.w	sp!, {r4, r5, r6, r7, r8, lr}
 80038b2:	f000 b869 	b.w	8003988 <_write_r>

080038b6 <__sseek>:
 80038b6:	b510      	push	{r4, lr}
 80038b8:	460c      	mov	r4, r1
 80038ba:	f9b1 100e 	ldrsh.w	r1, [r1, #14]
 80038be:	f000 f9a3 	bl	8003c08 <_lseek_r>
 80038c2:	1c43      	adds	r3, r0, #1
 80038c4:	89a3      	ldrh	r3, [r4, #12]
 80038c6:	bf15      	itete	ne
 80038c8:	6560      	strne	r0, [r4, #84]	; 0x54
 80038ca:	f423 5380 	biceq.w	r3, r3, #4096	; 0x1000
 80038ce:	f443 5380 	orrne.w	r3, r3, #4096	; 0x1000
 80038d2:	81a3      	strheq	r3, [r4, #12]
 80038d4:	bf18      	it	ne
 80038d6:	81a3      	strhne	r3, [r4, #12]
 80038d8:	bd10      	pop	{r4, pc}

080038da <__sclose>:
 80038da:	f9b1 100e 	ldrsh.w	r1, [r1, #14]
 80038de:	f000 b8d3 	b.w	8003a88 <_close_r>
	...

080038e4 <__swbuf_r>:
 80038e4:	b5f8      	push	{r3, r4, r5, r6, r7, lr}
 80038e6:	460e      	mov	r6, r1
 80038e8:	4614      	mov	r4, r2
 80038ea:	4605      	mov	r5, r0
 80038ec:	b118      	cbz	r0, 80038f6 <__swbuf_r+0x12>
 80038ee:	6983      	ldr	r3, [r0, #24]
 80038f0:	b90b      	cbnz	r3, 80038f6 <__swbuf_r+0x12>
 80038f2:	f7ff fbf9 	bl	80030e8 <__sinit>
 80038f6:	4b21      	ldr	r3, [pc, #132]	; (800397c <__swbuf_r+0x98>)
 80038f8:	429c      	cmp	r4, r3
 80038fa:	d12a      	bne.n	8003952 <__swbuf_r+0x6e>
 80038fc:	686c      	ldr	r4, [r5, #4]
 80038fe:	69a3      	ldr	r3, [r4, #24]
 8003900:	60a3      	str	r3, [r4, #8]
 8003902:	89a3      	ldrh	r3, [r4, #12]
 8003904:	071a      	lsls	r2, r3, #28
 8003906:	d52e      	bpl.n	8003966 <__swbuf_r+0x82>
 8003908:	6923      	ldr	r3, [r4, #16]
 800390a:	b363      	cbz	r3, 8003966 <__swbuf_r+0x82>
 800390c:	6923      	ldr	r3, [r4, #16]
 800390e:	6820      	ldr	r0, [r4, #0]
 8003910:	b2f6      	uxtb	r6, r6
 8003912:	1ac0      	subs	r0, r0, r3
 8003914:	6963      	ldr	r3, [r4, #20]
 8003916:	4637      	mov	r7, r6
 8003918:	4283      	cmp	r3, r0
 800391a:	dc04      	bgt.n	8003926 <__swbuf_r+0x42>
 800391c:	4621      	mov	r1, r4
 800391e:	4628      	mov	r0, r5
 8003920:	f000 f948 	bl	8003bb4 <_fflush_r>
 8003924:	bb28      	cbnz	r0, 8003972 <__swbuf_r+0x8e>
 8003926:	68a3      	ldr	r3, [r4, #8]
 8003928:	3001      	adds	r0, #1
 800392a:	3b01      	subs	r3, #1
 800392c:	60a3      	str	r3, [r4, #8]
 800392e:	6823      	ldr	r3, [r4, #0]
 8003930:	1c5a      	adds	r2, r3, #1
 8003932:	6022      	str	r2, [r4, #0]
 8003934:	701e      	strb	r6, [r3, #0]
 8003936:	6963      	ldr	r3, [r4, #20]
 8003938:	4283      	cmp	r3, r0
 800393a:	d004      	beq.n	8003946 <__swbuf_r+0x62>
 800393c:	89a3      	ldrh	r3, [r4, #12]
 800393e:	07db      	lsls	r3, r3, #31
 8003940:	d519      	bpl.n	8003976 <__swbuf_r+0x92>
 8003942:	2e0a      	cmp	r6, #10
 8003944:	d117      	bne.n	8003976 <__swbuf_r+0x92>
 8003946:	4621      	mov	r1, r4
 8003948:	4628      	mov	r0, r5
 800394a:	f000 f933 	bl	8003bb4 <_fflush_r>
 800394e:	b190      	cbz	r0, 8003976 <__swbuf_r+0x92>
 8003950:	e00f      	b.n	8003972 <__swbuf_r+0x8e>
 8003952:	4b0b      	ldr	r3, [pc, #44]	; (8003980 <__swbuf_r+0x9c>)
 8003954:	429c      	cmp	r4, r3
 8003956:	d101      	bne.n	800395c <__swbuf_r+0x78>
 8003958:	68ac      	ldr	r4, [r5, #8]
 800395a:	e7d0      	b.n	80038fe <__swbuf_r+0x1a>
 800395c:	4b09      	ldr	r3, [pc, #36]	; (8003984 <__swbuf_r+0xa0>)
 800395e:	429c      	cmp	r4, r3
 8003960:	bf08      	it	eq
 8003962:	68ec      	ldreq	r4, [r5, #12]
 8003964:	e7cb      	b.n	80038fe <__swbuf_r+0x1a>
 8003966:	4621      	mov	r1, r4
 8003968:	4628      	mov	r0, r5
 800396a:	f000 f81f 	bl	80039ac <__swsetup_r>
 800396e:	2800      	cmp	r0, #0
 8003970:	d0cc      	beq.n	800390c <__swbuf_r+0x28>
 8003972:	f04f 37ff 	mov.w	r7, #4294967295
 8003976:	4638      	mov	r0, r7
 8003978:	bdf8      	pop	{r3, r4, r5, r6, r7, pc}
 800397a:	bf00      	nop
 800397c:	08003e98 	.word	0x08003e98
 8003980:	08003eb8 	.word	0x08003eb8
 8003984:	08003e78 	.word	0x08003e78

08003988 <_write_r>:
 8003988:	b538      	push	{r3, r4, r5, lr}
 800398a:	4605      	mov	r5, r0
 800398c:	4608      	mov	r0, r1
 800398e:	4611      	mov	r1, r2
 8003990:	2200      	movs	r2, #0
 8003992:	4c05      	ldr	r4, [pc, #20]	; (80039a8 <_write_r+0x20>)
 8003994:	6022      	str	r2, [r4, #0]
 8003996:	461a      	mov	r2, r3
 8003998:	f7fc ff2d 	bl	80007f6 <_write>
 800399c:	1c43      	adds	r3, r0, #1
 800399e:	d102      	bne.n	80039a6 <_write_r+0x1e>
 80039a0:	6823      	ldr	r3, [r4, #0]
 80039a2:	b103      	cbz	r3, 80039a6 <_write_r+0x1e>
 80039a4:	602b      	str	r3, [r5, #0]
 80039a6:	bd38      	pop	{r3, r4, r5, pc}
 80039a8:	20000138 	.word	0x20000138

080039ac <__swsetup_r>:
 80039ac:	4b32      	ldr	r3, [pc, #200]	; (8003a78 <__swsetup_r+0xcc>)
 80039ae:	b570      	push	{r4, r5, r6, lr}
 80039b0:	681d      	ldr	r5, [r3, #0]
 80039b2:	4606      	mov	r6, r0
 80039b4:	460c      	mov	r4, r1
 80039b6:	b125      	cbz	r5, 80039c2 <__swsetup_r+0x16>
 80039b8:	69ab      	ldr	r3, [r5, #24]
 80039ba:	b913      	cbnz	r3, 80039c2 <__swsetup_r+0x16>
 80039bc:	4628      	mov	r0, r5
 80039be:	f7ff fb93 	bl	80030e8 <__sinit>
 80039c2:	4b2e      	ldr	r3, [pc, #184]	; (8003a7c <__swsetup_r+0xd0>)
 80039c4:	429c      	cmp	r4, r3
 80039c6:	d10f      	bne.n	80039e8 <__swsetup_r+0x3c>
 80039c8:	686c      	ldr	r4, [r5, #4]
 80039ca:	f9b4 300c 	ldrsh.w	r3, [r4, #12]
 80039ce:	b29a      	uxth	r2, r3
 80039d0:	0715      	lsls	r5, r2, #28
 80039d2:	d42c      	bmi.n	8003a2e <__swsetup_r+0x82>
 80039d4:	06d0      	lsls	r0, r2, #27
 80039d6:	d411      	bmi.n	80039fc <__swsetup_r+0x50>
 80039d8:	2209      	movs	r2, #9
 80039da:	6032      	str	r2, [r6, #0]
 80039dc:	f043 0340 	orr.w	r3, r3, #64	; 0x40
 80039e0:	81a3      	strh	r3, [r4, #12]
 80039e2:	f04f 30ff 	mov.w	r0, #4294967295
 80039e6:	e03e      	b.n	8003a66 <__swsetup_r+0xba>
 80039e8:	4b25      	ldr	r3, [pc, #148]	; (8003a80 <__swsetup_r+0xd4>)
 80039ea:	429c      	cmp	r4, r3
 80039ec:	d101      	bne.n	80039f2 <__swsetup_r+0x46>
 80039ee:	68ac      	ldr	r4, [r5, #8]
 80039f0:	e7eb      	b.n	80039ca <__swsetup_r+0x1e>
 80039f2:	4b24      	ldr	r3, [pc, #144]	; (8003a84 <__swsetup_r+0xd8>)
 80039f4:	429c      	cmp	r4, r3
 80039f6:	bf08      	it	eq
 80039f8:	68ec      	ldreq	r4, [r5, #12]
 80039fa:	e7e6      	b.n	80039ca <__swsetup_r+0x1e>
 80039fc:	0751      	lsls	r1, r2, #29
 80039fe:	d512      	bpl.n	8003a26 <__swsetup_r+0x7a>
 8003a00:	6b61      	ldr	r1, [r4, #52]	; 0x34
 8003a02:	b141      	cbz	r1, 8003a16 <__swsetup_r+0x6a>
 8003a04:	f104 0344 	add.w	r3, r4, #68	; 0x44
 8003a08:	4299      	cmp	r1, r3
 8003a0a:	d002      	beq.n	8003a12 <__swsetup_r+0x66>
 8003a0c:	4630      	mov	r0, r6
 8003a0e:	f000 f981 	bl	8003d14 <_free_r>
 8003a12:	2300      	movs	r3, #0
 8003a14:	6363      	str	r3, [r4, #52]	; 0x34
 8003a16:	89a3      	ldrh	r3, [r4, #12]
 8003a18:	f023 0324 	bic.w	r3, r3, #36	; 0x24
 8003a1c:	81a3      	strh	r3, [r4, #12]
 8003a1e:	2300      	movs	r3, #0
 8003a20:	6063      	str	r3, [r4, #4]
 8003a22:	6923      	ldr	r3, [r4, #16]
 8003a24:	6023      	str	r3, [r4, #0]
 8003a26:	89a3      	ldrh	r3, [r4, #12]
 8003a28:	f043 0308 	orr.w	r3, r3, #8
 8003a2c:	81a3      	strh	r3, [r4, #12]
 8003a2e:	6923      	ldr	r3, [r4, #16]
 8003a30:	b94b      	cbnz	r3, 8003a46 <__swsetup_r+0x9a>
 8003a32:	89a3      	ldrh	r3, [r4, #12]
 8003a34:	f403 7320 	and.w	r3, r3, #640	; 0x280
 8003a38:	f5b3 7f00 	cmp.w	r3, #512	; 0x200
 8003a3c:	d003      	beq.n	8003a46 <__swsetup_r+0x9a>
 8003a3e:	4621      	mov	r1, r4
 8003a40:	4630      	mov	r0, r6
 8003a42:	f000 f917 	bl	8003c74 <__smakebuf_r>
 8003a46:	89a2      	ldrh	r2, [r4, #12]
 8003a48:	f012 0301 	ands.w	r3, r2, #1
 8003a4c:	d00c      	beq.n	8003a68 <__swsetup_r+0xbc>
 8003a4e:	2300      	movs	r3, #0
 8003a50:	60a3      	str	r3, [r4, #8]
 8003a52:	6963      	ldr	r3, [r4, #20]
 8003a54:	425b      	negs	r3, r3
 8003a56:	61a3      	str	r3, [r4, #24]
 8003a58:	6923      	ldr	r3, [r4, #16]
 8003a5a:	b953      	cbnz	r3, 8003a72 <__swsetup_r+0xc6>
 8003a5c:	f9b4 300c 	ldrsh.w	r3, [r4, #12]
 8003a60:	f013 0080 	ands.w	r0, r3, #128	; 0x80
 8003a64:	d1ba      	bne.n	80039dc <__swsetup_r+0x30>
 8003a66:	bd70      	pop	{r4, r5, r6, pc}
 8003a68:	0792      	lsls	r2, r2, #30
 8003a6a:	bf58      	it	pl
 8003a6c:	6963      	ldrpl	r3, [r4, #20]
 8003a6e:	60a3      	str	r3, [r4, #8]
 8003a70:	e7f2      	b.n	8003a58 <__swsetup_r+0xac>
 8003a72:	2000      	movs	r0, #0
 8003a74:	e7f7      	b.n	8003a66 <__swsetup_r+0xba>
 8003a76:	bf00      	nop
 8003a78:	2000000c 	.word	0x2000000c
 8003a7c:	08003e98 	.word	0x08003e98
 8003a80:	08003eb8 	.word	0x08003eb8
 8003a84:	08003e78 	.word	0x08003e78

08003a88 <_close_r>:
 8003a88:	b538      	push	{r3, r4, r5, lr}
 8003a8a:	2300      	movs	r3, #0
 8003a8c:	4c05      	ldr	r4, [pc, #20]	; (8003aa4 <_close_r+0x1c>)
 8003a8e:	4605      	mov	r5, r0
 8003a90:	4608      	mov	r0, r1
 8003a92:	6023      	str	r3, [r4, #0]
 8003a94:	f7fc fecb 	bl	800082e <_close>
 8003a98:	1c43      	adds	r3, r0, #1
 8003a9a:	d102      	bne.n	8003aa2 <_close_r+0x1a>
 8003a9c:	6823      	ldr	r3, [r4, #0]
 8003a9e:	b103      	cbz	r3, 8003aa2 <_close_r+0x1a>
 8003aa0:	602b      	str	r3, [r5, #0]
 8003aa2:	bd38      	pop	{r3, r4, r5, pc}
 8003aa4:	20000138 	.word	0x20000138

08003aa8 <__sflush_r>:
 8003aa8:	898a      	ldrh	r2, [r1, #12]
 8003aaa:	e92d 41f0 	stmdb	sp!, {r4, r5, r6, r7, r8, lr}
 8003aae:	4605      	mov	r5, r0
 8003ab0:	0710      	lsls	r0, r2, #28
 8003ab2:	460c      	mov	r4, r1
 8003ab4:	d458      	bmi.n	8003b68 <__sflush_r+0xc0>
 8003ab6:	684b      	ldr	r3, [r1, #4]
 8003ab8:	2b00      	cmp	r3, #0
 8003aba:	dc05      	bgt.n	8003ac8 <__sflush_r+0x20>
 8003abc:	6c0b      	ldr	r3, [r1, #64]	; 0x40
 8003abe:	2b00      	cmp	r3, #0
 8003ac0:	dc02      	bgt.n	8003ac8 <__sflush_r+0x20>
 8003ac2:	2000      	movs	r0, #0
 8003ac4:	e8bd 81f0 	ldmia.w	sp!, {r4, r5, r6, r7, r8, pc}
 8003ac8:	6ae6      	ldr	r6, [r4, #44]	; 0x2c
 8003aca:	2e00      	cmp	r6, #0
 8003acc:	d0f9      	beq.n	8003ac2 <__sflush_r+0x1a>
 8003ace:	2300      	movs	r3, #0
 8003ad0:	f412 5280 	ands.w	r2, r2, #4096	; 0x1000
 8003ad4:	682f      	ldr	r7, [r5, #0]
 8003ad6:	6a21      	ldr	r1, [r4, #32]
 8003ad8:	602b      	str	r3, [r5, #0]
 8003ada:	d032      	beq.n	8003b42 <__sflush_r+0x9a>
 8003adc:	6d60      	ldr	r0, [r4, #84]	; 0x54
 8003ade:	89a3      	ldrh	r3, [r4, #12]
 8003ae0:	075a      	lsls	r2, r3, #29
 8003ae2:	d505      	bpl.n	8003af0 <__sflush_r+0x48>
 8003ae4:	6863      	ldr	r3, [r4, #4]
 8003ae6:	1ac0      	subs	r0, r0, r3
 8003ae8:	6b63      	ldr	r3, [r4, #52]	; 0x34
 8003aea:	b10b      	cbz	r3, 8003af0 <__sflush_r+0x48>
 8003aec:	6c23      	ldr	r3, [r4, #64]	; 0x40
 8003aee:	1ac0      	subs	r0, r0, r3
 8003af0:	2300      	movs	r3, #0
 8003af2:	4602      	mov	r2, r0
 8003af4:	6ae6      	ldr	r6, [r4, #44]	; 0x2c
 8003af6:	6a21      	ldr	r1, [r4, #32]
 8003af8:	4628      	mov	r0, r5
 8003afa:	47b0      	blx	r6
 8003afc:	1c43      	adds	r3, r0, #1
 8003afe:	89a3      	ldrh	r3, [r4, #12]
 8003b00:	d106      	bne.n	8003b10 <__sflush_r+0x68>
 8003b02:	6829      	ldr	r1, [r5, #0]
 8003b04:	291d      	cmp	r1, #29
 8003b06:	d848      	bhi.n	8003b9a <__sflush_r+0xf2>
 8003b08:	4a29      	ldr	r2, [pc, #164]	; (8003bb0 <__sflush_r+0x108>)
 8003b0a:	40ca      	lsrs	r2, r1
 8003b0c:	07d6      	lsls	r6, r2, #31
 8003b0e:	d544      	bpl.n	8003b9a <__sflush_r+0xf2>
 8003b10:	2200      	movs	r2, #0
 8003b12:	6062      	str	r2, [r4, #4]
 8003b14:	6922      	ldr	r2, [r4, #16]
 8003b16:	04d9      	lsls	r1, r3, #19
 8003b18:	6022      	str	r2, [r4, #0]
 8003b1a:	d504      	bpl.n	8003b26 <__sflush_r+0x7e>
 8003b1c:	1c42      	adds	r2, r0, #1
 8003b1e:	d101      	bne.n	8003b24 <__sflush_r+0x7c>
 8003b20:	682b      	ldr	r3, [r5, #0]
 8003b22:	b903      	cbnz	r3, 8003b26 <__sflush_r+0x7e>
 8003b24:	6560      	str	r0, [r4, #84]	; 0x54
 8003b26:	6b61      	ldr	r1, [r4, #52]	; 0x34
 8003b28:	602f      	str	r7, [r5, #0]
 8003b2a:	2900      	cmp	r1, #0
 8003b2c:	d0c9      	beq.n	8003ac2 <__sflush_r+0x1a>
 8003b2e:	f104 0344 	add.w	r3, r4, #68	; 0x44
 8003b32:	4299      	cmp	r1, r3
 8003b34:	d002      	beq.n	8003b3c <__sflush_r+0x94>
 8003b36:	4628      	mov	r0, r5
 8003b38:	f000 f8ec 	bl	8003d14 <_free_r>
 8003b3c:	2000      	movs	r0, #0
 8003b3e:	6360      	str	r0, [r4, #52]	; 0x34
 8003b40:	e7c0      	b.n	8003ac4 <__sflush_r+0x1c>
 8003b42:	2301      	movs	r3, #1
 8003b44:	4628      	mov	r0, r5
 8003b46:	47b0      	blx	r6
 8003b48:	1c41      	adds	r1, r0, #1
 8003b4a:	d1c8      	bne.n	8003ade <__sflush_r+0x36>
 8003b4c:	682b      	ldr	r3, [r5, #0]
 8003b4e:	2b00      	cmp	r3, #0
 8003b50:	d0c5      	beq.n	8003ade <__sflush_r+0x36>
 8003b52:	2b1d      	cmp	r3, #29
 8003b54:	d001      	beq.n	8003b5a <__sflush_r+0xb2>
 8003b56:	2b16      	cmp	r3, #22
 8003b58:	d101      	bne.n	8003b5e <__sflush_r+0xb6>
 8003b5a:	602f      	str	r7, [r5, #0]
 8003b5c:	e7b1      	b.n	8003ac2 <__sflush_r+0x1a>
 8003b5e:	89a3      	ldrh	r3, [r4, #12]
 8003b60:	f043 0340 	orr.w	r3, r3, #64	; 0x40
 8003b64:	81a3      	strh	r3, [r4, #12]
 8003b66:	e7ad      	b.n	8003ac4 <__sflush_r+0x1c>
 8003b68:	690f      	ldr	r7, [r1, #16]
 8003b6a:	2f00      	cmp	r7, #0
 8003b6c:	d0a9      	beq.n	8003ac2 <__sflush_r+0x1a>
 8003b6e:	0793      	lsls	r3, r2, #30
 8003b70:	bf18      	it	ne
 8003b72:	2300      	movne	r3, #0
 8003b74:	680e      	ldr	r6, [r1, #0]
 8003b76:	bf08      	it	eq
 8003b78:	694b      	ldreq	r3, [r1, #20]
 8003b7a:	eba6 0807 	sub.w	r8, r6, r7
 8003b7e:	600f      	str	r7, [r1, #0]
 8003b80:	608b      	str	r3, [r1, #8]
 8003b82:	f1b8 0f00 	cmp.w	r8, #0
 8003b86:	dd9c      	ble.n	8003ac2 <__sflush_r+0x1a>
 8003b88:	4643      	mov	r3, r8
 8003b8a:	463a      	mov	r2, r7
 8003b8c:	6a21      	ldr	r1, [r4, #32]
 8003b8e:	4628      	mov	r0, r5
 8003b90:	6aa6      	ldr	r6, [r4, #40]	; 0x28
 8003b92:	47b0      	blx	r6
 8003b94:	2800      	cmp	r0, #0
 8003b96:	dc06      	bgt.n	8003ba6 <__sflush_r+0xfe>
 8003b98:	89a3      	ldrh	r3, [r4, #12]
 8003b9a:	f043 0340 	orr.w	r3, r3, #64	; 0x40
 8003b9e:	81a3      	strh	r3, [r4, #12]
 8003ba0:	f04f 30ff 	mov.w	r0, #4294967295
 8003ba4:	e78e      	b.n	8003ac4 <__sflush_r+0x1c>
 8003ba6:	4407      	add	r7, r0
 8003ba8:	eba8 0800 	sub.w	r8, r8, r0
 8003bac:	e7e9      	b.n	8003b82 <__sflush_r+0xda>
 8003bae:	bf00      	nop
 8003bb0:	20400001 	.word	0x20400001

08003bb4 <_fflush_r>:
 8003bb4:	b538      	push	{r3, r4, r5, lr}
 8003bb6:	690b      	ldr	r3, [r1, #16]
 8003bb8:	4605      	mov	r5, r0
 8003bba:	460c      	mov	r4, r1
 8003bbc:	b1db      	cbz	r3, 8003bf6 <_fflush_r+0x42>
 8003bbe:	b118      	cbz	r0, 8003bc8 <_fflush_r+0x14>
 8003bc0:	6983      	ldr	r3, [r0, #24]
 8003bc2:	b90b      	cbnz	r3, 8003bc8 <_fflush_r+0x14>
 8003bc4:	f7ff fa90 	bl	80030e8 <__sinit>
 8003bc8:	4b0c      	ldr	r3, [pc, #48]	; (8003bfc <_fflush_r+0x48>)
 8003bca:	429c      	cmp	r4, r3
 8003bcc:	d109      	bne.n	8003be2 <_fflush_r+0x2e>
 8003bce:	686c      	ldr	r4, [r5, #4]
 8003bd0:	f9b4 300c 	ldrsh.w	r3, [r4, #12]
 8003bd4:	b17b      	cbz	r3, 8003bf6 <_fflush_r+0x42>
 8003bd6:	4621      	mov	r1, r4
 8003bd8:	4628      	mov	r0, r5
 8003bda:	e8bd 4038 	ldmia.w	sp!, {r3, r4, r5, lr}
 8003bde:	f7ff bf63 	b.w	8003aa8 <__sflush_r>
 8003be2:	4b07      	ldr	r3, [pc, #28]	; (8003c00 <_fflush_r+0x4c>)
 8003be4:	429c      	cmp	r4, r3
 8003be6:	d101      	bne.n	8003bec <_fflush_r+0x38>
 8003be8:	68ac      	ldr	r4, [r5, #8]
 8003bea:	e7f1      	b.n	8003bd0 <_fflush_r+0x1c>
 8003bec:	4b05      	ldr	r3, [pc, #20]	; (8003c04 <_fflush_r+0x50>)
 8003bee:	429c      	cmp	r4, r3
 8003bf0:	bf08      	it	eq
 8003bf2:	68ec      	ldreq	r4, [r5, #12]
 8003bf4:	e7ec      	b.n	8003bd0 <_fflush_r+0x1c>
 8003bf6:	2000      	movs	r0, #0
 8003bf8:	bd38      	pop	{r3, r4, r5, pc}
 8003bfa:	bf00      	nop
 8003bfc:	08003e98 	.word	0x08003e98
 8003c00:	08003eb8 	.word	0x08003eb8
 8003c04:	08003e78 	.word	0x08003e78

08003c08 <_lseek_r>:
 8003c08:	b538      	push	{r3, r4, r5, lr}
 8003c0a:	4605      	mov	r5, r0
 8003c0c:	4608      	mov	r0, r1
 8003c0e:	4611      	mov	r1, r2
 8003c10:	2200      	movs	r2, #0
 8003c12:	4c05      	ldr	r4, [pc, #20]	; (8003c28 <_lseek_r+0x20>)
 8003c14:	6022      	str	r2, [r4, #0]
 8003c16:	461a      	mov	r2, r3
 8003c18:	f7fc fe2d 	bl	8000876 <_lseek>
 8003c1c:	1c43      	adds	r3, r0, #1
 8003c1e:	d102      	bne.n	8003c26 <_lseek_r+0x1e>
 8003c20:	6823      	ldr	r3, [r4, #0]
 8003c22:	b103      	cbz	r3, 8003c26 <_lseek_r+0x1e>
 8003c24:	602b      	str	r3, [r5, #0]
 8003c26:	bd38      	pop	{r3, r4, r5, pc}
 8003c28:	20000138 	.word	0x20000138

08003c2c <__swhatbuf_r>:
 8003c2c:	b570      	push	{r4, r5, r6, lr}
 8003c2e:	460e      	mov	r6, r1
 8003c30:	f9b1 100e 	ldrsh.w	r1, [r1, #14]
 8003c34:	b096      	sub	sp, #88	; 0x58
 8003c36:	2900      	cmp	r1, #0
 8003c38:	4614      	mov	r4, r2
 8003c3a:	461d      	mov	r5, r3
 8003c3c:	da07      	bge.n	8003c4e <__swhatbuf_r+0x22>
 8003c3e:	2300      	movs	r3, #0
 8003c40:	602b      	str	r3, [r5, #0]
 8003c42:	89b3      	ldrh	r3, [r6, #12]
 8003c44:	061a      	lsls	r2, r3, #24
 8003c46:	d410      	bmi.n	8003c6a <__swhatbuf_r+0x3e>
 8003c48:	f44f 6380 	mov.w	r3, #1024	; 0x400
 8003c4c:	e00e      	b.n	8003c6c <__swhatbuf_r+0x40>
 8003c4e:	466a      	mov	r2, sp
 8003c50:	f000 f8be 	bl	8003dd0 <_fstat_r>
 8003c54:	2800      	cmp	r0, #0
 8003c56:	dbf2      	blt.n	8003c3e <__swhatbuf_r+0x12>
 8003c58:	9a01      	ldr	r2, [sp, #4]
 8003c5a:	f402 4270 	and.w	r2, r2, #61440	; 0xf000
 8003c5e:	f5a2 5300 	sub.w	r3, r2, #8192	; 0x2000
 8003c62:	425a      	negs	r2, r3
 8003c64:	415a      	adcs	r2, r3
 8003c66:	602a      	str	r2, [r5, #0]
 8003c68:	e7ee      	b.n	8003c48 <__swhatbuf_r+0x1c>
 8003c6a:	2340      	movs	r3, #64	; 0x40
 8003c6c:	2000      	movs	r0, #0
 8003c6e:	6023      	str	r3, [r4, #0]
 8003c70:	b016      	add	sp, #88	; 0x58
 8003c72:	bd70      	pop	{r4, r5, r6, pc}

08003c74 <__smakebuf_r>:
 8003c74:	898b      	ldrh	r3, [r1, #12]
 8003c76:	b573      	push	{r0, r1, r4, r5, r6, lr}
 8003c78:	079d      	lsls	r5, r3, #30
 8003c7a:	4606      	mov	r6, r0
 8003c7c:	460c      	mov	r4, r1
 8003c7e:	d507      	bpl.n	8003c90 <__smakebuf_r+0x1c>
 8003c80:	f104 0347 	add.w	r3, r4, #71	; 0x47
 8003c84:	6023      	str	r3, [r4, #0]
 8003c86:	6123      	str	r3, [r4, #16]
 8003c88:	2301      	movs	r3, #1
 8003c8a:	6163      	str	r3, [r4, #20]
 8003c8c:	b002      	add	sp, #8
 8003c8e:	bd70      	pop	{r4, r5, r6, pc}
 8003c90:	ab01      	add	r3, sp, #4
 8003c92:	466a      	mov	r2, sp
 8003c94:	f7ff ffca 	bl	8003c2c <__swhatbuf_r>
 8003c98:	9900      	ldr	r1, [sp, #0]
 8003c9a:	4605      	mov	r5, r0
 8003c9c:	4630      	mov	r0, r6
 8003c9e:	f7ff faad 	bl	80031fc <_malloc_r>
 8003ca2:	b948      	cbnz	r0, 8003cb8 <__smakebuf_r+0x44>
 8003ca4:	f9b4 300c 	ldrsh.w	r3, [r4, #12]
 8003ca8:	059a      	lsls	r2, r3, #22
 8003caa:	d4ef      	bmi.n	8003c8c <__smakebuf_r+0x18>
 8003cac:	f023 0303 	bic.w	r3, r3, #3
 8003cb0:	f043 0302 	orr.w	r3, r3, #2
 8003cb4:	81a3      	strh	r3, [r4, #12]
 8003cb6:	e7e3      	b.n	8003c80 <__smakebuf_r+0xc>
 8003cb8:	4b0d      	ldr	r3, [pc, #52]	; (8003cf0 <__smakebuf_r+0x7c>)
 8003cba:	62b3      	str	r3, [r6, #40]	; 0x28
 8003cbc:	89a3      	ldrh	r3, [r4, #12]
 8003cbe:	6020      	str	r0, [r4, #0]
 8003cc0:	f043 0380 	orr.w	r3, r3, #128	; 0x80
 8003cc4:	81a3      	strh	r3, [r4, #12]
 8003cc6:	9b00      	ldr	r3, [sp, #0]
 8003cc8:	6120      	str	r0, [r4, #16]
 8003cca:	6163      	str	r3, [r4, #20]
 8003ccc:	9b01      	ldr	r3, [sp, #4]
 8003cce:	b15b      	cbz	r3, 8003ce8 <__smakebuf_r+0x74>
 8003cd0:	f9b4 100e 	ldrsh.w	r1, [r4, #14]
 8003cd4:	4630      	mov	r0, r6
 8003cd6:	f000 f88d 	bl	8003df4 <_isatty_r>
 8003cda:	b128      	cbz	r0, 8003ce8 <__smakebuf_r+0x74>
 8003cdc:	89a3      	ldrh	r3, [r4, #12]
 8003cde:	f023 0303 	bic.w	r3, r3, #3
 8003ce2:	f043 0301 	orr.w	r3, r3, #1
 8003ce6:	81a3      	strh	r3, [r4, #12]
 8003ce8:	89a3      	ldrh	r3, [r4, #12]
 8003cea:	431d      	orrs	r5, r3
 8003cec:	81a5      	strh	r5, [r4, #12]
 8003cee:	e7cd      	b.n	8003c8c <__smakebuf_r+0x18>
 8003cf0:	080030b1 	.word	0x080030b1

08003cf4 <memchr>:
 8003cf4:	b510      	push	{r4, lr}
 8003cf6:	b2c9      	uxtb	r1, r1
 8003cf8:	4402      	add	r2, r0
 8003cfa:	4290      	cmp	r0, r2
 8003cfc:	4603      	mov	r3, r0
 8003cfe:	d101      	bne.n	8003d04 <memchr+0x10>
 8003d00:	2300      	movs	r3, #0
 8003d02:	e003      	b.n	8003d0c <memchr+0x18>
 8003d04:	781c      	ldrb	r4, [r3, #0]
 8003d06:	3001      	adds	r0, #1
 8003d08:	428c      	cmp	r4, r1
 8003d0a:	d1f6      	bne.n	8003cfa <memchr+0x6>
 8003d0c:	4618      	mov	r0, r3
 8003d0e:	bd10      	pop	{r4, pc}

08003d10 <__malloc_lock>:
 8003d10:	4770      	bx	lr

08003d12 <__malloc_unlock>:
 8003d12:	4770      	bx	lr

08003d14 <_free_r>:
 8003d14:	b538      	push	{r3, r4, r5, lr}
 8003d16:	4605      	mov	r5, r0
 8003d18:	2900      	cmp	r1, #0
 8003d1a:	d043      	beq.n	8003da4 <_free_r+0x90>
 8003d1c:	f851 3c04 	ldr.w	r3, [r1, #-4]
 8003d20:	1f0c      	subs	r4, r1, #4
 8003d22:	2b00      	cmp	r3, #0
 8003d24:	bfb8      	it	lt
 8003d26:	18e4      	addlt	r4, r4, r3
 8003d28:	f7ff fff2 	bl	8003d10 <__malloc_lock>
 8003d2c:	4a1e      	ldr	r2, [pc, #120]	; (8003da8 <_free_r+0x94>)
 8003d2e:	6813      	ldr	r3, [r2, #0]
 8003d30:	4610      	mov	r0, r2
 8003d32:	b933      	cbnz	r3, 8003d42 <_free_r+0x2e>
 8003d34:	6063      	str	r3, [r4, #4]
 8003d36:	6014      	str	r4, [r2, #0]
 8003d38:	4628      	mov	r0, r5
 8003d3a:	e8bd 4038 	ldmia.w	sp!, {r3, r4, r5, lr}
 8003d3e:	f7ff bfe8 	b.w	8003d12 <__malloc_unlock>
 8003d42:	42a3      	cmp	r3, r4
 8003d44:	d90b      	bls.n	8003d5e <_free_r+0x4a>
 8003d46:	6821      	ldr	r1, [r4, #0]
 8003d48:	1862      	adds	r2, r4, r1
 8003d4a:	4293      	cmp	r3, r2
 8003d4c:	bf01      	itttt	eq
 8003d4e:	681a      	ldreq	r2, [r3, #0]
 8003d50:	685b      	ldreq	r3, [r3, #4]
 8003d52:	1852      	addeq	r2, r2, r1
 8003d54:	6022      	streq	r2, [r4, #0]
 8003d56:	6063      	str	r3, [r4, #4]
 8003d58:	6004      	str	r4, [r0, #0]
 8003d5a:	e7ed      	b.n	8003d38 <_free_r+0x24>
 8003d5c:	4613      	mov	r3, r2
 8003d5e:	685a      	ldr	r2, [r3, #4]
 8003d60:	b10a      	cbz	r2, 8003d66 <_free_r+0x52>
 8003d62:	42a2      	cmp	r2, r4
 8003d64:	d9fa      	bls.n	8003d5c <_free_r+0x48>
 8003d66:	6819      	ldr	r1, [r3, #0]
 8003d68:	1858      	adds	r0, r3, r1
 8003d6a:	42a0      	cmp	r0, r4
 8003d6c:	d10b      	bne.n	8003d86 <_free_r+0x72>
 8003d6e:	6820      	ldr	r0, [r4, #0]
 8003d70:	4401      	add	r1, r0
 8003d72:	1858      	adds	r0, r3, r1
 8003d74:	4282      	cmp	r2, r0
 8003d76:	6019      	str	r1, [r3, #0]
 8003d78:	d1de      	bne.n	8003d38 <_free_r+0x24>
 8003d7a:	6810      	ldr	r0, [r2, #0]
 8003d7c:	6852      	ldr	r2, [r2, #4]
 8003d7e:	4401      	add	r1, r0
 8003d80:	6019      	str	r1, [r3, #0]
 8003d82:	605a      	str	r2, [r3, #4]
 8003d84:	e7d8      	b.n	8003d38 <_free_r+0x24>
 8003d86:	d902      	bls.n	8003d8e <_free_r+0x7a>
 8003d88:	230c      	movs	r3, #12
 8003d8a:	602b      	str	r3, [r5, #0]
 8003d8c:	e7d4      	b.n	8003d38 <_free_r+0x24>
 8003d8e:	6820      	ldr	r0, [r4, #0]
 8003d90:	1821      	adds	r1, r4, r0
 8003d92:	428a      	cmp	r2, r1
 8003d94:	bf01      	itttt	eq
 8003d96:	6811      	ldreq	r1, [r2, #0]
 8003d98:	6852      	ldreq	r2, [r2, #4]
 8003d9a:	1809      	addeq	r1, r1, r0
 8003d9c:	6021      	streq	r1, [r4, #0]
 8003d9e:	6062      	str	r2, [r4, #4]
 8003da0:	605c      	str	r4, [r3, #4]
 8003da2:	e7c9      	b.n	8003d38 <_free_r+0x24>
 8003da4:	bd38      	pop	{r3, r4, r5, pc}
 8003da6:	bf00      	nop
 8003da8:	20000090 	.word	0x20000090

08003dac <_read_r>:
 8003dac:	b538      	push	{r3, r4, r5, lr}
 8003dae:	4605      	mov	r5, r0
 8003db0:	4608      	mov	r0, r1
 8003db2:	4611      	mov	r1, r2
 8003db4:	2200      	movs	r2, #0
 8003db6:	4c05      	ldr	r4, [pc, #20]	; (8003dcc <_read_r+0x20>)
 8003db8:	6022      	str	r2, [r4, #0]
 8003dba:	461a      	mov	r2, r3
 8003dbc:	f7fc fcfe 	bl	80007bc <_read>
 8003dc0:	1c43      	adds	r3, r0, #1
 8003dc2:	d102      	bne.n	8003dca <_read_r+0x1e>
 8003dc4:	6823      	ldr	r3, [r4, #0]
 8003dc6:	b103      	cbz	r3, 8003dca <_read_r+0x1e>
 8003dc8:	602b      	str	r3, [r5, #0]
 8003dca:	bd38      	pop	{r3, r4, r5, pc}
 8003dcc:	20000138 	.word	0x20000138

08003dd0 <_fstat_r>:
 8003dd0:	b538      	push	{r3, r4, r5, lr}
 8003dd2:	2300      	movs	r3, #0
 8003dd4:	4c06      	ldr	r4, [pc, #24]	; (8003df0 <_fstat_r+0x20>)
 8003dd6:	4605      	mov	r5, r0
 8003dd8:	4608      	mov	r0, r1
 8003dda:	4611      	mov	r1, r2
 8003ddc:	6023      	str	r3, [r4, #0]
 8003dde:	f7fc fd31 	bl	8000844 <_fstat>
 8003de2:	1c43      	adds	r3, r0, #1
 8003de4:	d102      	bne.n	8003dec <_fstat_r+0x1c>
 8003de6:	6823      	ldr	r3, [r4, #0]
 8003de8:	b103      	cbz	r3, 8003dec <_fstat_r+0x1c>
 8003dea:	602b      	str	r3, [r5, #0]
 8003dec:	bd38      	pop	{r3, r4, r5, pc}
 8003dee:	bf00      	nop
 8003df0:	20000138 	.word	0x20000138

08003df4 <_isatty_r>:
 8003df4:	b538      	push	{r3, r4, r5, lr}
 8003df6:	2300      	movs	r3, #0
 8003df8:	4c05      	ldr	r4, [pc, #20]	; (8003e10 <_isatty_r+0x1c>)
 8003dfa:	4605      	mov	r5, r0
 8003dfc:	4608      	mov	r0, r1
 8003dfe:	6023      	str	r3, [r4, #0]
 8003e00:	f7fc fd2f 	bl	8000862 <_isatty>
 8003e04:	1c43      	adds	r3, r0, #1
 8003e06:	d102      	bne.n	8003e0e <_isatty_r+0x1a>
 8003e08:	6823      	ldr	r3, [r4, #0]
 8003e0a:	b103      	cbz	r3, 8003e0e <_isatty_r+0x1a>
 8003e0c:	602b      	str	r3, [r5, #0]
 8003e0e:	bd38      	pop	{r3, r4, r5, pc}
 8003e10:	20000138 	.word	0x20000138

08003e14 <_init>:
 8003e14:	b5f8      	push	{r3, r4, r5, r6, r7, lr}
 8003e16:	bf00      	nop
 8003e18:	bcf8      	pop	{r3, r4, r5, r6, r7}
 8003e1a:	bc08      	pop	{r3}
 8003e1c:	469e      	mov	lr, r3
 8003e1e:	4770      	bx	lr

08003e20 <_fini>:
 8003e20:	b5f8      	push	{r3, r4, r5, r6, r7, lr}
 8003e22:	bf00      	nop
 8003e24:	bcf8      	pop	{r3, r4, r5, r6, r7}
 8003e26:	bc08      	pop	{r3}
 8003e28:	469e      	mov	lr, r3
 8003e2a:	4770      	bx	lr
